eax
  4030c5:       e9 f2 fe ff ff          jmpq   402fbc <dlerror@plt+0x155c>
  4030ca:       48 89 ef                mov    %rbp,%rdi
  4030cd:       e8 be 1a 00 00          callq  404b90 <dlerror@plt+0x3130>
  4030d2:       eb d5                   jmp    4030a9 <dlerror@plt+0x1649>
  4030d4:       31 c0                   xor    %eax,%eax
  4030d6:       be 00 56 40 00          mov    $0x405600,%esi
  4030db:       bf 53 56 40 00          mov    $0x405653,%edi
  4030e0:       e8 eb f2 ff ff          callq  4023d0 <dlerror@plt+0x970>
  4030e5:       b8 ff ff ff ff          mov    $0xffffffff,%eax
  4030ea:       e9 cd fe ff ff          jmpq   402fbc <dlerror@plt+0x155c>
  4030ef:       90                      nop
  4030f0:       53                      push   %rbx
  4030f1:       ba 00 10 00 00          mov    $0x1000,%edx
  4030f6:       48 89 fb                mov    %rdi,%rbx
  4030f9:       48 81 ec 00 10 00 00    sub    $0x1000,%rsp
  403100:       48 89 e7                mov    %rsp,%rdi
  403103:       e8 38 e8 ff ff          callq  401940 <__strcpy_chk@plt>
  403108:       48 89 e7                mov    %rsp,%rdi
  40310b:       e8 50 e6 ff ff          callq  401760 <dirname@plt>
  403110:       48 89 df                mov    %rbx,%rdi
  403113:       48 89 c6                mov    %rax,%rsi
  403116:       e8 45 e5 ff ff          callq  401660 <strcpy@plt>
  40311b:       48 81 c4 00 10 00 00    add    $0x1000,%rsp
  403122:       5b                      pop    %rbx
  403123:       c3                      retq
  403124:       66 66 66 2e 0f 1f 84    data16 data16 nopw %cs:0x0(%rax,%rax,1)
  40312b:       00 00 00 00 00
  403130:       53                      push   %rbx
  403131:       48 89 fb                mov    %rdi,%rbx
  403134:       48 89 f7                mov    %rsi,%rdi
  403137:       e8 44 e7 ff ff          callq  401880 <__xpg_basename@plt>
  40313c:       48 89 df                mov    %rbx,%rdi
  40313f:       48 89 c6                mov    %rax,%rsi
  403142:       5b                      pop    %rbx
  403143:       e9 18 e5 ff ff          jmpq   401660 <strcpy@plt>
  403148:       0f 1f 84 00 00 00 00    nopl   0x0(%rax,%rax,1)
  40314f:       00
  403150:       41 55                   push   %r13
  403152:       41 54                   push   %r12
  403154:       49 89 f4                mov    %rsi,%r12
  403157:       55                      push   %rbp
  403158:       53                      push   %rbx
  403159:       48 89 d5                mov    %rdx,%rbp
  40315c:       48 89 fb                mov    %rdi,%rbx
  40315f:       48 83 ec 08             sub    $0x8,%rsp
  403163:       48 85 ff                test   %rdi,%rdi
  403166:       0f 84 ac 00 00 00       je     403218 <dlerror@plt+0x17b8>
  40316c:       48 8d 47 08             lea    0x8(%rdi),%rax
  403170:       48 89 d9                mov    %rbx,%rcx
  403173:       48 c7 07 00 00 00 00    movq   $0x0,(%rdi)
  40317a:       48 c7 87 f8 0f 00 00    movq   $0x0,0xff8(%rdi)
  403181:       00 00 00 00
  403185:       48 83 e0 f8             and    $0xfffffffffffffff8,%rax
  403189:       48 29 c1                sub    %rax,%rcx
  40318c:       48 89 c7                mov    %rax,%rdi
  40318f:       31 c0                   xor    %eax,%eax
  403191:       81 c1 00 10 00 00       add    $0x1000,%ecx
  403197:       c1 e9 03                shr    $0x3,%ecx
  40319a:       f3 48 ab                rep stos %rax,%es:(%rdi)
  40319d:       4c 89 e7                mov    %r12,%rdi
  4031a0:       e8 8b e5 ff ff          callq  401730 <strlen@plt>
  4031a5:       4c 89 e6                mov    %r12,%rsi
  4031a8:       48 89 c2                mov    %rax,%rdx
  4031ab:       48 89 df                mov    %rbx,%rdi
  4031ae:       e8 8d e4 ff ff          callq  401640 <strncpy@plt>
  4031b3:       48 89 df                mov    %rbx,%rdi
  4031b6:       e8 75 e5 ff ff          callq  401730 <strlen@plt>
  4031bb:       80 7c 03 ff 2f          cmpb   $0x2f,-0x1(%rbx,%rax,1)
  4031c0:       74 09                   je     4031cb <dlerror@plt+0x176b>
  4031c2:       c6 04 03 2f             movb   $0x2f,(%rbx,%rax,1)
  4031c6:       c6 44 03 01 00          movb   $0x0,0x1(%rbx,%rax,1)
  4031cb:       48 89 ef                mov    %rbp,%rdi
  4031ce:       e8 5d e5 ff ff          callq  401730 <strlen@plt>
  4031d3:       80 7c 05 ff 2f          cmpb   $0x2f,-0x1(%rbp,%rax,1)
  4031d8:       74 1e                   je     4031f8 <dlerror@plt+0x1798>
  4031da:       48 89 ee                mov    %rbp,%rsi
  4031dd:       48 89 df                mov    %rbx,%rdi
  4031e0:       e8 fb e7 ff ff          callq  4019e0 <strcat@plt>
  4031e5:       48 89 d8                mov    %rbx,%rax
  4031e8:       48 83 c4 08             add    $0x8,%rsp
  4031ec:       5b                      pop    %rbx
  4031ed:       5d                      pop    %rbp
  4031ee:       41 5c                   pop    %r12
  4031f0:       41 5d                   pop    %r13
  4031f2:       c3                      retq
  4031f3:       0f 1f 44 00 00          nopl   0x0(%rax,%rax,1)
  4031f8:       48 8d 50 fe             lea    -0x2(%rax),%rdx
  4031fc:       48 89 ee                mov    %rbp,%rsi
  4031ff:       48 89 df                mov    %rbx,%rdi
  403202:       e8 89 e5 ff ff          callq  401790 <strncat@plt>
  403207:       48 83 c4 08             add    $0x8,%rsp
  40320b:       48 89 d8                mov    %rbx,%rax
  40320e:       5b                      pop    %rbx
  40320f:       5d                      pop    %rbp
  403210:       41 5c                   pop    %r12
  403212:       41 5d                   pop    %r13
  403214:       c3                      retq
  403215:       0f 1f 00                nopl   (%rax)
  403218:       48 89 f7                mov    %rsi,%rdi
  40321b:       e8 10 e5 ff ff          callq  401730 <strlen@plt>
  403220:       48 89 ef                mov    %rbp,%rdi
  403223:       48 89 c3                mov    %rax,%rbx
  403226:       e8 05 e5 ff ff          callq  401730 <strlen@plt>
  40322b:       4c 8d 6c 03 02          lea    0x2(%rbx,%rax,1),%r13
  403230:       4c 89 ef                mov    %r13,%rdi
  403233:       e8 a8 e6 ff ff          callq  4018e0 <malloc@plt>
  403238:       48 85 c0                test   %rax,%rax
  40323b:       48 89 c3                mov    %rax,%rbx
  40323e:       74 12                   je     403252 <dlerror@plt+0x17f2>
  403240:       4c 89 ea                mov    %r13,%rdx
  403243:       31 f6                   xor    %esi,%esi
  403245:       48 89 c7                mov    %rax,%rdi
  403248:       e8 23 e5 ff ff          callq  401770 <memset@plt>
  40324d:       e9 4b ff ff ff          jmpq   40319d <dlerror@plt+0x173d>
  403252:       31 c0                   xor    %eax,%eax
  403254:       eb 92                   jmp    4031e8 <dlerror@plt+0x1788>
  403256:       66 2e 0f 1f 84 00 00    nopw   %cs:0x0(%rax,%rax,1)
  40325d:       00 00 00
  403260:       f3 c3                   repz retq
  403262:       66 66 66 66 66 2e 0f    data16 data16 data16 data16 nopw %cs:0x0(%rax,%rax,1)
  403269:       1f 84 00 00 00 00 00
  403270:       48 83 ec 08             sub    $0x8,%rsp
  403274:       48 89 fe                mov    %rdi,%rsi
  403277:       48 89 d7                mov    %rdx,%rdi
  40327a:       e8 d1 e5 ff ff          callq  401850 <realpath@plt>
  40327f:       48 85 c0                test   %rax,%rax
  403282:       0f 95 c0                setne  %al
  403285:       48 83 c4 08             add    $0x8,%rsp
  403289:       0f b6 c0                movzbl %al,%eax
  40328c:       c3                      retq
  40328d:       0f 1f 00                nopl   (%rax)
  403290:       48 81 ec 98 00 00 00    sub    $0x98,%rsp
  403297:       48 89 fe                mov    %rdi,%rsi
  40329a:       bf 01 00 00 00          mov    $0x1,%edi
  40329f:       48 89 e2                mov    %rsp,%rdx
  4032a2:       e8 09 e6 ff ff          callq  4018b0 <__xstat@plt>
  4032a7:       85 c0                   test   %eax,%eax
  4032a9:       0f 94 c0                sete   %al
  4032ac:       48 81 c4 98 00 00 00    add    $0x98,%rsp
  4032b3:       0f b6 c0                movzbl %al,%eax
  4032b6:       c3                      retq
  4032b7:       66 0f 1f 84 00 00 00    nopw   0x0(%rax,%rax,1)
  4032be:       00 00
  4032c0:       41 57                   push   %r15
  4032c2:       41 56                   push   %r14
  4032c4:       49 89 fe                mov    %rdi,%r14
  4032c7:       41 55                   push   %r13
  4032c9:       41 54                   push   %r12
  4032cb:       bf f3 62 40 00          mov    $0x4062f3,%edi
  4032d0:       55                      push   %rbp
  4032d1:       53                      push   %rbx
  4032d2:       49 89 f4                mov    %rsi,%r12
  4032d5:       48 81 ec b8 20 00 00    sub    $0x20b8,%rsp
  4032dc:       e8 8f 16 00 00          callq  404970 <dlerror@plt+0x2f10>
  4032e1:       48 85 c0                test   %rax,%rax
  4032e4:       48 89 c5                mov    %rax,%rbp
  4032e7:       0f 84 cc 00 00 00       je     4033b9 <dlerror@plt+0x1959>
  4032ed:       41 bd 00 10 00 00       mov    $0x1000,%r13d
  4032f3:       eb 69                   jmp    40335e <dlerror@plt+0x18fe>
  4032f5:       0f 1f 00                nopl   (%rax)
  4032f8:       48 89 c3                mov    %rax,%rbx
  4032fb:       48 8d bc 24 90 00 00    lea    0x90(%rsp),%rdi
  403302:       00
  403303:       b9 01 10 00 00          mov    $0x1001,%ecx
  403308:       48 29 eb                sub    %rbp,%rbx
  40330b:       48 89 ee                mov    %rbp,%rsi
  40330e:       48 81 fb 00 10 00 00    cmp    $0x1000,%rbx
  403315:       49 0f 47 dd             cmova  %r13,%rbx
  403319:       48 89 da                mov    %rbx,%rdx
  40331c:       e8 0f e6 ff ff          callq  401930 <__strncpy_chk@plt>
  403321:       48 8d b4 24 90 00 00    lea    0x90(%rsp),%rsi
  403328:       00
  403329:       48 8d bc 24 a0 10 00    lea    0x10a0(%rsp),%rdi
  403330:       00
  403331:       4c 89 e2                mov    %r12,%rdx
  403334:       c6 84 1c 90 00 00 00    movb   $0x0,0x90(%rsp,%rbx,1)
  40333b:       00
  40333c:       e8 0f fe ff ff          callq  403150 <dlerror@plt+0x16f0>
  403341:       48 8d b4 24 a0 10 00    lea    0x10a0(%rsp),%rsi
  403348:       00
  403349:       48 89 e2                mov    %rsp,%rdx
  40334c:       bf 01 00 00 00          mov    $0x1,%edi
  403351:       e8 5a e5 ff ff          callq  4018b0 <__xstat@plt>
  403356:       85 c0                   test   %eax,%eax
  403358:       74 76                   je     4033d0 <dlerror@plt+0x1970>
  40335a:       49 8d 6f 01             lea    0x1(%r15),%rbp
  40335e:       be 3a 00 00 00          mov    $0x3a,%esi
  403363:       48 89 ef                mov    %rbp,%rdi
  403366:       e8 e5 e3 ff ff          callq  401750 <strchr@plt>
  40336b:       48 85 c0                test   %rax,%rax
  40336e:       49 89 c7                mov    %rax,%r15
  403371:       75 85                   jne    4032f8 <dlerror@plt+0x1898>
  403373:       48 8d bc 24 90 00 00    lea    0x90(%rsp),%rdi
  40337a:       00
  40337b:       ba 00 10 00 00          mov    $0x1000,%edx
  403380:       48 89 ee                mov    %rbp,%rsi
  403383:       e8 b8 e2 ff ff          callq  401640 <strncpy@plt>
  403388:       48 8d b4 24 90 00 00    lea    0x90(%rsp),%rsi
  40338f:       00
  403390:       48 8d bc 24 a0 10 00    lea    0x10a0(%rsp),%rdi
  403397:       00
  403398:       4c 89 e2                mov    %r12,%rdx
  40339b:       e8 b0 fd ff ff          callq  403150 <dlerror@plt+0x16f0>
  4033a0:       48 8d b4 24 a0 10 00    lea    0x10a0(%rsp),%rsi
  4033a7:       00
  4033a8:       48 89 e2                mov    %rsp,%rdx
  4033ab:       bf 01 00 00 00          mov    $0x1,%edi
  4033b0:       e8 fb e4 ff ff          callq  4018b0 <__xstat@plt>
  4033b5:       85 c0                   test   %eax,%eax
  4033b7:       74 17                   je     4033d0 <dlerror@plt+0x1970>
  4033b9:       b8 ff ff ff ff          mov    $0xffffffff,%eax
  4033be:       48 81 c4 b8 20 00 00    add    $0x20b8,%rsp
  4033c5:       5b                      pop    %rbx
  4033c6:       5d                      pop    %rbp
  4033c7:       41 5c                   pop    %r12
  4033c9:       41 5d                   pop    %r13
  4033cb:       41 5e                   pop    %r14
  4033cd:       41 5f                   pop    %r15
  4033cf:       c3                      retq
  4033d0:       48 8d b4 24 a0 10 00    lea    0x10a0(%rsp),%rsi
  4033d7:       00
  4033d8:       ba 00 10 00 00          mov    $0x1000,%edx
  4033dd:       4c 89 f7                mov    %r14,%rdi
  4033e0:       e8 5b e2 ff ff          callq  401640 <strncpy@plt>
  4033e5:       31 c0                   xor    %eax,%eax
  4033e7:       eb d5                   jmp    4033be <dlerror@plt+0x195e>
  4033e9:       0f 1f 80 00 00 00 00    nopl   0x0(%rax)
  4033f0:       41 54                   push   %r12
  4033f2:       55                      push   %rbp
  4033f3:       49 89 f4                mov    %rsi,%r12
  4033f6:       53                      push   %rbx
  4033f7:       48 89 fe                mov    %rdi,%rsi
  4033fa:       48 89 fb                mov    %rdi,%rbx
  4033fd:       ba 00 10 00 00          mov    $0x1000,%edx
  403402:       bf 64 56 40 00          mov    $0x405664,%edi
  403407:       48 81 ec 00 10 00 00    sub    $0x1000,%rsp
  40340e:       e8 ad e2 ff ff          callq  4016c0 <readlink@plt>
  403413:       48 83 f8 ff             cmp    $0xffffffffffffffff,%rax
  403417:       74 17                   je     403430 <dlerror@plt+0x19d0>
  403419:       c6 04 03 00             movb   $0x0,(%rbx,%rax,1)
  40341d:       31 c0                   xor    %eax,%eax
  40341f:       48 81 c4 00 10 00 00    add    $0x1000,%rsp
  403426:       5b                      pop    %rbx
  403427:       5d                      pop    %rbp
  403428:       41 5c                   pop    %r12
  40342a:       c3                      retq
  40342b:       0f 1f 44 00 00          nopl   0x0(%rax,%rax,1)
  403430:       41 80 3c 24 2f          cmpb   $0x2f,(%r12)
  403435:       74 12                   je     403449 <dlerror@plt+0x19e9>
  403437:       be 2f 00 00 00          mov    $0x2f,%esi
  40343c:       4c 89 e7                mov    %r12,%rdi
  40343f:       e8 0c e3 ff ff          callq  401750 <strchr@plt>
  403444:       48 85 c0                test   %rax,%rax
  403447:       74 27                   je     403470 <dlerror@plt+0x1a10>
  403449:       4c 89 e2                mov    %r12,%rdx
  40344c:       48 89 df                mov    %rbx,%rdi
  40344f:       be 00 10 00 00          mov    $0x1000,%esi
  403454:       e8 17 fe ff ff          callq  403270 <dlerror@plt+0x1810>
  403459:       85 c0                   test   %eax,%eax
  40345b:       0f 94 c0                sete   %al
  40345e:       48 81 c4 00 10 00 00    add    $0x1000,%rsp
  403465:       0f b6 c0                movzbl %al,%eax
  403468:       5b                      pop    %rbx
  403469:       f7 d8                   neg    %eax
  40346b:       5d                      pop    %rbp
  40346c:       41 5c                   pop    %r12
  40346e:       c3                      retq
  40346f:       90                      nop
  403470:       4c 89 e6                mov    %r12,%rsi
  403473:       48 89 e7                mov    %rsp,%rdi
  403476:       e8 45 fe ff ff          callq  4032c0 <dlerror@plt+0x1860>
  40347b:       83 f8 ff                cmp    $0xffffffff,%eax
  40347e:       89 c5                   mov    %eax,%ebp
  403480:       74 05                   je     403487 <dlerror@plt+0x1a27>
  403482:       48 89 e2                mov    %rsp,%rdx
  403485:       eb c5                   jmp    40344c <dlerror@plt+0x19ec>
  403487:       ba 00 10 00 00          mov    $0x1000,%edx
  40348c:       4c 89 e6                mov    %r12,%rsi
  40348f:       48 89 e7                mov    %rsp,%rdi
  403492:       e8 a9 e1 ff ff          callq  401640 <strncpy@plt>
  403497:       80 bc 24 ff 0f 00 00    cmpb   $0x0,0xfff(%rsp)
  40349e:       00
  40349f:       74 e1                   je     403482 <dlerror@plt+0x1a22>
  4034a1:       89 e8                   mov    %ebp,%eax
  4034a3:       e9 77 ff ff ff          jmpq   40341f <dlerror@plt+0x19bf>
  4034a8:       0f 1f 84 00 00 00 00    nopl   0x0(%rax,%rax,1)
  4034af:       00
  4034b0:       e9 3b fc ff ff          jmpq   4030f0 <dlerror@plt+0x1690>
  4034b5:       66 66 2e 0f 1f 84 00    data16 nopw %cs:0x0(%rax,%rax,1)
  4034bc:       00 00 00 00
  4034c0:       48 83 ec 08             sub    $0x8,%rsp
  4034c4:       e8 47 e2 ff ff          callq  401710 <stpcpy@plt>
  4034c9:       c7 00 2e 70 6b 67       movl   $0x676b702e,(%rax)
  4034cf:       c6 40 04 00             movb   $0x0,0x4(%rax)
  4034d3:       48 83 c4 08             add    $0x8,%rsp
  4034d7:       c3                      retq
  4034d8:       0f 1f 84 00 00 00 00    nopl   0x0(%rax,%rax,1)
  4034df:       00
  4034e0:       55                      push   %rbp
  4034e1:       53                      push   %rbx
  4034e2:       89 f5                   mov    %esi,%ebp
  4034e4:       be 73 56 40 00          mov    $0x405673,%esi
  4034e9:       48 89 fb                mov    %rdi,%rbx
  4034ec:       48 83 ec 08             sub    $0x8,%rsp
  4034f0:       e8 3b e5 ff ff          callq  401a30 <dlsym@plt>
  4034f5:       48 85 c0                test   %rax,%rax
  4034f8:       48 89 05 c1 44 20 00    mov    %rax,0x2044c1(%rip)        # 6079c0 <stderr@@GLIBC_2.2.5+0x170>
  4034ff:       0f 84 ab 05 00 00       je     403ab0 <dlerror@plt+0x2050>
  403505:       be 8c 56 40 00          mov    $0x40568c,%esi
  40350a:       48 89 df                mov    %rbx,%rdi
  40350d:       e8 1e e5 ff ff          callq  401a30 <dlsym@plt>
  403512:       48 85 c0                test   %rax,%rax
  403515:       48 89 05 9c 44 20 00    mov    %rax,0x20449c(%rip)        # 6079b8 <stderr@@GLIBC_2.2.5+0x168>
  40351c:       0f 84 a2 05 00 00       je     403ac4 <dlerror@plt+0x2064>
  403522:       be a9 56 40 00          mov    $0x4056a9,%esi
  403527:       48 89 df                mov    %rbx,%rdi
  40352a:       e8 01 e5 ff ff          callq  401a30 <dlsym@plt>
  40352f:       48 85 c0                test   %rax,%rax
  403532:       48 89 05 77 44 20 00    mov    %rax,0x204477(%rip)        # 6079b0 <stderr@@GLIBC_2.2.5+0x160>
  403539:       0f 84 99 05 00 00       je     403ad8 <dlerror@plt+0x2078>
  40353f:       be b7 56 40 00          mov    $0x4056b7,%esi
  403544:       48 89 df                mov    %rbx,%rdi
  403547:       e8 e4 e4 ff ff          callq  401a30 <dlsym@plt>
  40354c:       48 85 c0                test   %rax,%rax
  40354f:       48 89 05 52 44 20 00    mov    %rax,0x204452(%rip)        # 6079a8 <stderr@@GLIBC_2.2.5+0x158>
  403556:       0f 84 90 05 00 00       je     403aec <dlerror@plt+0x208c>
  40355c:       be d0 56 40 00          mov    $0x4056d0,%esi
  403561:       48 89 df                mov    %rbx,%rdi
  403564:       e8 c7 e4 ff ff          callq  401a30 <dlsym@plt>
  403569:       48 85 c0                test   %rax,%rax
  40356c:       48 89 05 2d 44 20 00    mov    %rax,0x20442d(%rip)        # 6079a0 <stderr@@GLIBC_2.2.5+0x150>
  403573:       0f 84 87 05 00 00       je     403b00 <dlerror@plt+0x20a0>
  403579:       be de 56 40 00          mov    $0x4056de,%esi
  40357e:       48 89 df                mov    %rbx,%rdi
  403581:       e8 aa e4 ff ff          callq  401a30 <dlsym@plt>
  403586:       48 85 c0                test   %rax,%rax
  403589:       48 89 05 08 44 20 00    mov    %rax,0x204408(%rip)        # 607998 <stderr@@GLIBC_2.2.5+0x148>
  403590:       0f 84 7e 05 00 00       je     403b14 <dlerror@plt+0x20b4>
  403596:       be f5 56 40 00          mov    $0x4056f5,%esi
  40359b:       48 89 df                mov    %rbx,%rdi
  40359e:       e8 8d e4 ff ff          callq  401a30 <dlsym@plt>
  4035a3:       48 85 c0                test   %rax,%rax
  4035a6:       48 89 05 e3 43 20 00    mov    %rax,0x2043e3(%rip)        # 607990 <stderr@@GLIBC_2.2.5+0x140>
  4035ad:       0f 84 75 05 00 00       je     403b28 <dlerror@plt+0x20c8>
  4035b3:       be 05 57 40 00          mov    $0x405705,%esi
  4035b8:       48 89 df                mov    %rbx,%rdi
  4035bb:       e8 70 e4 ff ff          callq  401a30 <dlsym@plt>
  4035c0:       48 85 c0                test   %rax,%rax
  4035c3:       48 89 05 be 43 20 00    mov    %rax,0x2043be(%rip)        # 607988 <stderr@@GLIBC_2.2.5+0x138>
  4035ca:       0f 84 6c 05 00 00       je     403b3c <dlerror@plt+0x20dc>
  4035d0:       be 14 57 40 00          mov    $0x405714,%esi
  4035d5:       48 89 df                mov    %rbx,%rdi
  4035d8:       e8 53 e4 ff ff          callq  401a30 <dlsym@plt>
  4035dd:       48 85 c0                test   %rax,%rax
  4035e0:       48 89 05 99 43 20 00    mov    %rax,0x204399(%rip)        # 607980 <stderr@@GLIBC_2.2.5+0x130>
  4035e7:       0f 84 63 05 00 00       je     403b50 <dlerror@plt+0x20f0>
  4035ed:       be 22 57 40 00          mov    $0x405722,%esi
  4035f2:       48 89 df                mov    %rbx,%rdi
  4035f5:       e8 36 e4 ff ff          callq  401a30 <dlsym@plt>
  4035fa:       48 85 c0                test   %rax,%rax
  4035fd:       48 89 05 74 43 20 00    mov    %rax,0x204374(%rip)        # 607978 <stderr@@GLIBC_2.2.5+0x128>
  403604:       0f 84 5a 05 00 00       je     403b64 <dlerror@plt+0x2104>
  40360a:       be 48 57 40 00          mov    $0x405748,%esi
  40360f:       48 89 df                mov    %rbx,%rdi
  403612:       e8 19 e4 ff ff          callq  401a30 <dlsym@plt>
  403617:       48 85 c0                test   %rax,%rax
  40361a:       48 89 05 4f 43 20 00    mov    %rax,0x20434f(%rip)        # 607970 <stderr@@GLIBC_2.2.5+0x120>
  403621:       0f 84 51 05 00 00       je     403b78 <dlerror@plt+0x2118>
  403627:       be 72 57 40 00          mov    $0x405772,%esi
  40362c:       48 89 df                mov    %rbx,%rdi
  40362f:       e8 fc e3 ff ff          callq  401a30 <dlsym@plt>
  403634:       48 85 c0                test   %rax,%rax
  403637:       48 89 05 2a 43 20 00    mov    %rax,0x20432a(%rip)        # 607968 <stderr@@GLIBC_2.2.5+0x118>
  40363e:       0f 84 48 05 00 00       je     403b8c <dlerror@plt+0x212c>
  403644:       be 98 57 40 00          mov    $0x405798,%esi
  403649:       48 89 df                mov    %rbx,%rdi
  40364c:       e8 df e3 ff ff          callq  401a30 <dlsym@plt>
  403651:       48 85 c0                test   %rax,%rax
  403654:       48 89 05 05 43 20 00    mov    %rax,0x204305(%rip)        # 607960 <stderr@@GLIBC_2.2.5+0x110>
  40365b:       0f 84 0b 07 00 00       je     403d6c <dlerror@plt+0x230c>
  403661:       83 fd 1d                cmp    $0x1d,%ebp
  403664:       0f 8f b6 02 00 00       jg     403920 <dlerror@plt+0x1ec0>
  40366a:       be f6 57 40 00          mov    $0x4057f6,%esi
  40366f:       48 89 df                mov    %rbx,%rdi
  403672:       e8 b9 e3 ff ff          callq  401a30 <dlsym@plt>
  403677:       48 85 c0                test   %rax,%rax
  40367a:       48 89 05 c7 42 20 00    mov    %rax,0x2042c7(%rip)        # 607948 <stderr@@GLIBC_2.2.5+0xf8>
  403681:       0f 84 19 05 00 00       je     403ba0 <dlerror@plt+0x2140>
  403687:       be 08 58 40 00          mov    $0x405808,%esi
  40368c:       48 89 df                mov    %rbx,%rdi
  40368f:       e8 9c e3 ff ff          callq  401a30 <dlsym@plt>
  403694:       48 85 c0                test   %rax,%rax
  403697:       48 89 05 a2 42 20 00    mov    %rax,0x2042a2(%rip)        # 607940 <stderr@@GLIBC_2.2.5+0xf0>
  40369e:       0f 84 10 05 00 00       je     403bb4 <dlerror@plt+0x2154>
  4036a4:       be 19 58 40 00          mov    $0x405819,%esi
  4036a9:       48 89 df                mov    %rbx,%rdi
  4036ac:       e8 7f e3 ff ff          callq  401a30 <dlsym@plt>
  4036b1:       48 85 c0                test   %rax,%rax
  4036b4:       48 89 05 7d 42 20 00    mov    %rax,0x20427d(%rip)        # 607938 <stderr@@GLIBC_2.2.5+0xe8>
  4036bb:       0f 84 07 05 00 00       je     403bc8 <dlerror@plt+0x2168>
  4036c1:       be 2e 58 40 00          mov    $0x40582e,%esi
  4036c6:       48 89 df                mov    %rbx,%rdi
  4036c9:       e8 62 e3 ff ff          callq  401a30 <dlsym@plt>
  4036ce:       48 85 c0                test   %rax,%rax
  4036d1:       48 89 05 58 42 20 00    mov    %rax,0x204258(%rip)        # 607930 <stderr@@GLIBC_2.2.5+0xe0>
  4036d8:       0f 84 fe 04 00 00       je     403bdc <dlerror@plt+0x217c>
  4036de:       be 58 58 40 00          mov    $0x405858,%esi
  4036e3:       48 89 df                mov    %rbx,%rdi
  4036e6:       e8 45 e3 ff ff          callq  401a30 <dlsym@plt>
  4036eb:       48 85 c0                test   %rax,%rax
  4036ee:       48 89 05 33 42 20 00    mov    %rax,0x204233(%rip)        # 607928 <stderr@@GLIBC_2.2.5+0xd8>
  4036f5:       0f 84 f5 04 00 00       je     403bf0 <dlerror@plt+0x2190>
  4036fb:       be 67 58 40 00          mov    $0x405867,%esi
  403700:       48 89 df                mov    %rbx,%rdi
  403703:       e8 28 e3 ff ff          callq  401a30 <dlsym@plt>
  403708:       48 85 c0                test   %rax,%rax
  40370b:       48 89 05 0e 42 20 00    mov    %rax,0x20420e(%rip)        # 607920 <stderr@@GLIBC_2.2.5+0xd0>
  403712:       0f 84 ec 04 00 00       je     403c04 <dlerror@plt+0x21a4>
  403718:       be 91 58 40 00          mov    $0x405891,%esi
  40371d:       48 89 df                mov    %rbx,%rdi
  403720:       e8 0b e3 ff ff          callq  401a30 <dlsym@plt>
  403725:       48 85 c0                test   %rax,%rax
  403728:       48 89 05 e9 41 20 00    mov    %rax,0x2041e9(%rip)        # 607918 <stderr@@GLIBC_2.2.5+0xc8>
  40372f:       0f 84 e3 04 00 00       je     403c18 <dlerror@plt+0x21b8>
  403735:       be a4 58 40 00          mov    $0x4058a4,%esi
  40373a:       48 89 df                mov    %rbx,%rdi
  40373d:       e8 ee e2 ff ff          callq  401a30 <dlsym@plt>
  403742:       48 85 c0                test   %rax,%rax
  403745:       48 89 05 c4 41 20 00    mov    %rax,0x2041c4(%rip)        # 607910 <stderr@@GLIBC_2.2.5+0xc0>
  40374c:       0f 84 ee 04 00 00       je     403c40 <dlerror@plt+0x21e0>
  403752:       be bc 58 40 00          mov    $0x4058bc,%esi
  403757:       48 89 df                mov    %rbx,%rdi
  40375a:       e8 d1 e2 ff ff          callq  401a30 <dlsym@plt>
  40375f:       48 85 c0                test   %rax,%rax
  403762:       48 89 05 9f 41 20 00    mov    %rax,0x20419f(%rip)        # 607908 <stderr@@GLIBC_2.2.5+0xb8>
  403769:       0f 84 bd 04 00 00       je     403c2c <dlerror@plt+0x21cc>
  40376f:       be d2 58 40 00          mov    $0x4058d2,%esi
  403774:       48 89 df                mov    %rbx,%rdi
  403777:       e8 b4 e2 ff ff          callq  401a30 <dlsym@plt>
  40377c:       48 85 c0                test   %rax,%rax
  40377f:       48 89 05 7a 41 20 00    mov    %rax,0x20417a(%rip)        # 607900 <stderr@@GLIBC_2.2.5+0xb0>
  403786:       0f 84 dc 04 00 00       je     403c68 <dlerror@plt+0x2208>
  40378c:       be e0 58 40 00          mov    $0x4058e0,%esi
  403791:       48 89 df                mov    %rbx,%rdi
  403794:       e8 97 e2 ff ff          callq  401a30 <dlsym@plt>
  403799:       48 85 c0                test   %rax,%rax
  40379c:       48 89 05 55 41 20 00    mov    %rax,0x204155(%rip)        # 6078f8 <stderr@@GLIBC_2.2.5+0xa8>
  4037a3:       0f 84 ab 04 00 00       je     403c54 <dlerror@plt+0x21f4>
  4037a9:       be 08 59 40 00          mov    $0x405908,%esi
  4037ae:       48 89 df                mov    %rbx,%rdi
  4037b1:       e8 7a e2 ff ff          callq  401a30 <dlsym@plt>
  4037b6:       48 85 c0                test   %rax,%rax
  4037b9:       48 89 05 30 41 20 00    mov    %rax,0x204130(%rip)        # 6078f0 <stderr@@GLIBC_2.2.5+0xa0>
  4037c0:       0f 84 ca 04 00 00       je     403c90 <dlerror@plt+0x2230>
  4037c6:       be 16 59 40 00          mov    $0x405916,%esi
  4037cb:       48 89 df                mov    %rbx,%rdi
  4037ce:       e8 5d e2 ff ff          callq  401a30 <dlsym@plt>
  4037d3:       48 85 c0                test   %rax,%rax
  4037d6:       48 89 05 0b 41 20 00    mov    %rax,0x20410b(%rip)        # 6078e8 <stderr@@GLIBC_2.2.5+0x98>
  4037dd:       0f 84 99 04 00 00       je     403c7c <dlerror@plt+0x221c>
  4037e3:       be 27 59 40 00          mov    $0x405927,%esi
  4037e8:       48 89 df                mov    %rbx,%rdi
  4037eb:       e8 40 e2 ff ff          callq  401a30 <dlsym@plt>
  4037f0:       48 85 c0                test   %rax,%rax
  4037f3:       48 89 05 e6 40 20 00    mov    %rax,0x2040e6(%rip)        # 6078e0 <stderr@@GLIBC_2.2.5+0x90>
  4037fa:       0f 84 b8 04 00 00       je     403cb8 <dlerror@plt+0x2258>
  403800:       be 3d 59 40 00          mov    $0x40593d,%esi
  403805:       48 89 df                mov    %rbx,%rdi
  403808:       e8 23 e2 ff ff          callq  401a30 <dlsym@plt>
  40380d:       48 85 c0                test   %rax,%rax
  403810:       48 89 05 c1 40 20 00    mov    %rax,0x2040c1(%rip)        # 6078d8 <stderr@@GLIBC_2.2.5+0x88>
  403817:       0f 84 87 04 00 00       je     403ca4 <dlerror@plt+0x2244>
  40381d:       be 54 59 40 00          mov    $0x405954,%esi
  403822:       48 89 df                mov    %rbx,%rdi
  403825:       e8 06 e2 ff ff          callq  401a30 <dlsym@plt>
  40382a:       48 85 c0                test   %rax,%rax
  40382d:       48 89 05 9c 40 20 00    mov    %rax,0x20409c(%rip)        # 6078d0 <stderr@@GLIBC_2.2.5+0x80>
  403834:       0f 84 46 05 00 00       je     403d80 <dlerror@plt+0x2320>
  40383a:       83 fd 1d                cmp    $0x1d,%ebp
  40383d:       0f 8e 2d 01 00 00       jle    403970 <dlerror@plt+0x1f10>
  403843:       be 8f 59 40 00          mov    $0x40598f,%esi
  403848:       48 89 df                mov    %rbx,%rdi
  40384b:       e8 e0 e1 ff ff          callq  401a30 <dlsym@plt>
  403850:       48 85 c0                test   %rax,%rax
  403853:       48 89 05 66 40 20 00    mov    %rax,0x204066(%rip)        # 6078c0 <stderr@@GLIBC_2.2.5+0x70>
  40385a:       0f 84 6c 04 00 00       je     403ccc <dlerror@plt+0x226c>
  403860:       be a3 59 40 00          mov    $0x4059a3,%esi
  403865:       48 89 df                mov    %rbx,%rdi
  403868:       e8 c3 e1 ff ff          callq  401a30 <dlsym@plt>
  40386d:       48 85 c0                test   %rax,%rax
  403870:       48 89 05 41 40 20 00    mov    %rax,0x204041(%rip)        # 6078b8 <stderr@@GLIBC_2.2.5+0x68>
  403877:       0f 84 8b 04 00 00       je     403d08 <dlerror@plt+0x22a8>
  40387d:       be b3 59 40 00          mov    $0x4059b3,%esi
  403882:       48 89 df                mov    %rbx,%rdi
  403885:       e8 a6 e1 ff ff          callq  401a30 <dlsym@plt>
  40388a:       48 85 c0                test   %rax,%rax
  40388d:       48 89 05 1c 40 20 00    mov    %rax,0x20401c(%rip)        # 6078b0 <stderr@@GLIBC_2.2.5+0x60>
  403894:       0f 84 5a 04 00 00       je     403cf4 <dlerror@plt+0x2294>
  40389a:       be c3 59 40 00          mov    $0x4059c3,%esi
  40389f:       48 89 df                mov    %rbx,%rdi
  4038a2:       e8 89 e1 ff ff          callq  401a30 <dlsym@plt>
  4038a7:       48 85 c0                test   %rax,%rax
  4038aa:       48 89 05 f7 3f 20 00    mov    %rax,0x203ff7(%rip)        # 6078a8 <stderr@@GLIBC_2.2.5+0x58>
  4038b1:       0f 84 29 04 00 00       je     403ce0 <dlerror@plt+0x2280>
  4038b7:       be d3 59 40 00          mov    $0x4059d3,%esi
  4038bc:       48 89 df                mov    %rbx,%rdi
  4038bf:       e8 6c e1 ff ff          callq  401a30 <dlsym@plt>
  4038c4:       48 85 c0                test   %rax,%rax
  4038c7:       48 89 05 d2 3f 20 00    mov    %rax,0x203fd2(%rip)        # 6078a0 <stderr@@GLIBC_2.2.5+0x50>
  4038ce:       0f 84 5c 04 00 00       je     403d30 <dlerror@plt+0x22d0>
  4038d4:       be e1 59 40 00          mov    $0x4059e1,%esi
  4038d9:       48 89 df                mov    %rbx,%rdi
  4038dc:       e8 4f e1 ff ff          callq  401a30 <dlsym@plt>
  4038e1:       48 85 c0                test   %rax,%rax
  4038e4:       48 89 05 7d 3f 20 00    mov    %rax,0x203f7d(%rip)        # 607868 <stderr@@GLIBC_2.2.5+0x18>
  4038eb:       0f 84 2b 04 00 00       je     403d1c <dlerror@plt+0x22bc>
  4038f1:       be 38 5f 40 00          mov    $0x405f38,%esi
  4038f6:       48 89 df                mov    %rbx,%rdi
  4038f9:       e8 32 e1 ff ff          callq  401a30 <dlsym@plt>
  4038fe:       48 85 c0                test   %rax,%rax
  403901:       48 89 05 58 3f 20 00    mov    %rax,0x203f58(%rip)        # 607860 <stderr@@GLIBC_2.2.5+0x10>
  403908:       0f 84 86 04 00 00       je     403d94 <dlerror@plt+0x2334>
  40390e:       83 fd 1d                cmp    $0x1d,%ebp
  403911:       0f 8f a9 00 00 00       jg     4039c0 <dlerror@plt+0x1f60>
  403917:       31 c0                   xor    %eax,%eax
  403919:       48 83 c4 08             add    $0x8,%rsp
  40391d:       5b                      pop    %rbx
  40391e:       5d                      pop    %rbp
  40391f:       c3                      retq
  403920:       be a6 57 40 00          mov    $0x4057a6,%esi
  403925:       48 89 df                mov    %rbx,%rdi
  403928:       e8 03 e1 ff ff          callq  401a30 <dlsym@plt>
  40392d:       48 85 c0                test   %rax,%rax
  403930:       48 89 05 21 40 20 00    mov    %rax,0x204021(%rip)        # 607958 <stderr@@GLIBC_2.2.5+0x108>
  403937:       0f 84 07 04 00 00       je     403d44 <dlerror@plt+0x22e4>
  40393d:       be ce 57 40 00          mov    $0x4057ce,%esi
  403942:       48 89 df                mov    %rbx,%rdi
  403945:       e8 e6 e0 ff ff          callq  401a30 <dlsym@plt>
  40394a:       48 85 c0                test   %rax,%rax
  40394d:       48 89 05 fc 3f 20 00    mov    %rax,0x203ffc(%rip)        # 607950 <stderr@@GLIBC_2.2.5+0x100>
  403954:       0f 85 10 fd ff ff       jne    40366a <dlerror@plt+0x1c0a>
  40395a:       bf d9 57 40 00          mov    $0x4057d9,%edi
  40395f:       e8 9c e9 ff ff          callq  402300 <dlerror@plt+0x8a0>
  403964:       b8 ff ff ff ff          mov    $0xffffffff,%eax
  403969:       eb ae                   jmp    403919 <dlerror@plt+0x1eb9>
  40396b:       0f 1f 44 00 00          nopl   0x0(%rax,%rax,1)
  403970:       be 67 59 40 00          mov    $0x405967,%esi
  403975:       48 89 df                mov    %rbx,%rdi
  403978:       e8 b3 e0 ff ff          callq  401a30 <dlsym@plt>
  40397d:       48 85 c0                test   %rax,%rax
  403980:       48 89 05 41 3f 20 00    mov    %rax,0x203f41(%rip)        # 6078c8 <stderr@@GLIBC_2.2.5+0x78>
  403987:       0f 84 cb 03 00 00       je     403d58 <dlerror@plt+0x22f8>
  40398d:       be 7b 59 40 00          mov    $0x40597b,%esi
  403992:       48 89 df                mov    %rbx,%rdi
  403995:       e8 96 e0 ff ff          callq  401a30 <dlsym@plt>
  40399a:       48 85 c0                test   %rax,%rax
  40399d:       48 89 05 e4 3e 20 00    mov    %rax,0x203ee4(%rip)        # 607888 <stderr@@GLIBC_2.2.5+0x38>
  4039a4:       0f 85 99 fe ff ff       jne    403843 <dlerror@plt+0x1de3>
  4039aa:       bf 28 5e 40 00          mov    $0x405e28,%edi
  4039af:       e8 4c e9 ff ff          callq  402300 <dlerror@plt+0x8a0>
  4039b4:       b8 ff ff ff ff          mov    $0xffffffff,%eax
  4039b9:       e9 5b ff ff ff          jmpq   403919 <dlerror@plt+0x1eb9>
  4039be:       66 90                   xchg   %ax,%ax
  4039c0:       be f1 59 40 00          mov    $0x4059f1,%esi
  4039c5:       48 89 df                mov    %rbx,%rdi
  4039c8:       e8 63 e0 ff ff          callq  401a30 <dlsym@plt>
  4039cd:       48 85 c0                test   %rax,%rax
  4039d0:       48 89 05 c1 3e 20 00    mov    %rax,0x203ec1(%rip)        # 607898 <stderr@@GLIBC_2.2.5+0x48>
  4039d7:       0f 84 f3 03 00 00       je     403dd0 <dlerror@plt+0x2370>
  4039dd:       83 fd 22                cmp    $0x22,%ebp
  4039e0:       0f 8f 92 00 00 00       jg     403a78 <dlerror@plt+0x2018>
  4039e6:       be 16 5a 40 00          mov    $0x405a16,%esi
  4039eb:       48 89 df                mov    %rbx,%rdi
  4039ee:       e8 3d e0 ff ff          callq  401a30 <dlsym@plt>
  4039f3:       48 85 c0                test   %rax,%rax
  4039f6:       48 89 05 93 3e 20 00    mov    %rax,0x203e93(%rip)        # 607890 <stderr@@GLIBC_2.2.5+0x40>
  4039fd:       0f 84 df 03 00 00       je     403de2 <dlerror@plt+0x2382>
  403a03:       be 50 5a 40 00          mov    $0x405a50,%esi
  403a08:       48 89 df                mov    %rbx,%rdi
  403a0b:       e8 20 e0 ff ff          callq  401a30 <dlsym@plt>
  403a10:       48 85 c0                test   %rax,%rax
  403a13:       48 89 05 66 3e 20 00    mov    %rax,0x203e66(%rip)        # 607880 <stderr@@GLIBC_2.2.5+0x30>
  403a1a:       0f 84 88 03 00 00       je     403da8 <dlerror@plt+0x2348>
  403a20:       be 25 5a 40 00          mov    $0x405a25,%esi
  403a25:       48 89 df                mov    %rbx,%rdi
  403a28:       e8 03 e0 ff ff          callq  401a30 <dlsym@plt>
  403a2d:       48 85 c0                test   %rax,%rax
  403a30:       48 89 05 39 3e 20 00    mov    %rax,0x203e39(%rip)        # 607870 <stderr@@GLIBC_2.2.5+0x20>
  403a37:       0f 84 81 03 00 00       je     403dbe <dlerror@plt+0x235e>
  403a3d:       83 fd 1f                cmp    $0x1f,%ebp
  403a40:       0f 8e d1 fe ff ff       jle    403917 <dlerror@plt+0x1eb7>
  403a46:       be 36 5a 40 00          mov    $0x405a36,%esi
  403a4b:       48 89 df                mov    %rbx,%rdi
  403a4e:       e8 dd df ff ff          callq  401a30 <dlsym@plt>
  403a53:       48 85 c0                test   %rax,%rax
  403a56:       48 89 05 1b 3e 20 00    mov    %rax,0x203e1b(%rip)        # 607878 <stderr@@GLIBC_2.2.5+0x28>
  403a5d:       0f 85 b4 fe ff ff       jne    403917 <dlerror@plt+0x1eb7>
  403a63:       bf 58 60 40 00          mov    $0x406058,%edi
  403a68:       e8 93 e8 ff ff          callq  402300 <dlerror@plt+0x8a0>
  403a6d:       83 c8 ff                or     $0xffffffff,%eax
  403a70:       e9 a4 fe ff ff          jmpq   403919 <dlerror@plt+0x1eb9>
  403a75:       0f 1f 00                nopl   (%rax)
  403a78:       be 06 5a 40 00          mov    $0x405a06,%esi
  403a7d:       48 89 df                mov    %rbx,%rdi
  403a80:       e8 ab df ff ff          callq  401a30 <dlsym@plt>
  403a85:       48 85 c0                test   %rax,%rax
  403a88:       48 89 05 01 3e 20 00    mov    %rax,0x203e01(%rip)        # 607890 <stderr@@GLIBC_2.2.5+0x40>
  403a8f:       0f 85 6e ff ff ff       jne    403a03 <dlerror@plt+0x1fa3>
  403a95:       bf b8 5f 40 00          mov    $0x405fb8,%edi
  403a9a:       e8 61 e8 ff ff          callq  402300 <dlerror@plt+0x8a0>
  403a9f:       83 c8 ff                or     $0xffffffff,%eax
  403aa2:       e9 72 fe ff ff          jmpq   403919 <dlerror@plt+0x1eb9>
  403aa7:       66 0f 1f 84 00 00 00    nopw   0x0(%rax,%rax,1)
  403aae:       00 00
  403ab0:       bf 68 5a 40 00          mov    $0x405a68,%edi
  403ab5:       e8 46 e8 ff ff          callq  402300 <dlerror@plt+0x8a0>
  403aba:       b8 ff ff ff ff          mov    $0xffffffff,%eax
  403abf:       e9 55 fe ff ff          jmpq   403919 <dlerror@plt+0x1eb9>
  403ac4:       bf 98 5a 40 00          mov    $0x405a98,%edi
  403ac9:       e8 32 e8 ff ff          callq  402300 <dlerror@plt+0x8a0>
  403ace:       b8 ff ff ff ff          mov    $0xffffffff,%eax
  403ad3:       e9 41 fe ff ff          jmpq   403919 <dlerror@plt+0x1eb9>
  403ad8:       bf c8 5a 40 00          mov    $0x405ac8,%edi
  403add:       e8 1e e8 ff ff          callq  402300 <dlerror@plt+0x8a0>
  403ae2:       b8 ff ff ff ff          mov    $0xffffffff,%eax
  403ae7:       e9 2d fe ff ff          jmpq   403919 <dlerror@plt+0x1eb9>
  403aec:       bf e8 5a 40 00          mov    $0x405ae8,%edi
  403af1:       e8 0a e8 ff ff          callq  402300 <dlerror@plt+0x8a0>
  403af6:       b8 ff ff ff ff          mov    $0xffffffff,%eax
  403afb:       e9 19 fe ff ff          jmpq   403919 <dlerror@plt+0x1eb9>
  403b00:       bf 18 5b 40 00          mov    $0x405b18,%edi
  403b05:       e8 f6 e7 ff ff          callq  402300 <dlerror@plt+0x8a0>
  403b0a:       b8 ff ff ff ff          mov    $0xffffffff,%eax
  403b0f:       e9 05 fe ff ff          jmpq   403919 <dlerror@plt+0x1eb9>
  403b14:       bf 38 5b 40 00          mov    $0x405b38,%edi
  403b19:       e8 e2 e7 ff ff          callq  402300 <dlerror@plt+0x8a0>
  403b1e:       b8 ff ff ff ff          mov    $0xffffffff,%eax
  403b23:       e9 f1 fd ff ff          jmpq   403919 <dlerror@plt+0x1eb9>
  403b28:       bf 68 5b 40 00          mov    $0x405b68,%edi
  403b2d:       e8 ce e7 ff ff          callq  402300 <dlerror@plt+0x8a0>
  403b32:       b8 ff ff ff ff          mov    $0xffffffff,%eax
  403b37:       e9 dd fd ff ff          jmpq   403919 <dlerror@plt+0x1eb9>
  403b3c:       bf 90 5b 40 00          mov    $0x405b90,%edi
  403b41:       e8 ba e7 ff ff          callq  402300 <dlerror@plt+0x8a0>
  403b46:       b8 ff ff ff ff          mov    $0xffffffff,%eax
  403b4b:       e9 c9 fd ff ff          jmpq   403919 <dlerror@plt+0x1eb9>
  403b50:       bf b8 5b 40 00          mov    $0x405bb8,%edi
  403b55:       e8 a6 e7 ff ff          callq  402300 <dlerror@plt+0x8a0>
  403b5a:       b8 ff ff ff ff          mov    $0xffffffff,%eax
  403b5f:       e9 b5 fd ff ff          jmpq   403919 <dlerror@plt+0x1eb9>
  403b64:       bf 2c 57 40 00          mov    $0x40572c,%edi
  403b69:       e8 92 e7 ff ff          callq  402300 <dlerror@plt+0x8a0>
  403b6e:       b8 ff ff ff ff          mov    $0xffffffff,%eax
  403b73:       e9 a1 fd ff ff          jmpq   403919 <dlerror@plt+0x1eb9>
  403b78:       bf 54 57 40 00          mov    $0x405754,%edi
  403b7d:       e8 7e e7 ff ff          callq  402300 <dlerror@plt+0x8a0>
  403b82:       b8 ff ff ff ff          mov    $0xffffffff,%eax
  403b87:       e9 8d fd ff ff          jmpq   403919 <dlerror@plt+0x1eb9>
  403b8c:       bf 7c 57 40 00          mov    $0x40577c,%edi
  403b91:       e8 6a e7 ff ff          callq  402300 <dlerror@plt+0x8a0>
  403b96:       b8 ff ff ff ff          mov    $0xffffffff,%eax
  403b9b:       e9 79 fd ff ff          jmpq   403919 <dlerror@plt+0x1eb9>
  403ba0:       bf f8 5b 40 00          mov    $0x405bf8,%edi
  403ba5:       e8 56 e7 ff ff          callq  402300 <dlerror@plt+0x8a0>
  403baa:       b8 ff ff ff ff          mov    $0xffffffff,%eax
  403baf:       e9 65 fd ff ff          jmpq   403919 <dlerror@plt+0x1eb9>
  403bb4:       bf 20 5c 40 00          mov    $0x405c20,%edi
  403bb9:       e8 42 e7 ff ff          callq  402300 <dlerror@plt+0x8a0>
  403bbe:       b8 ff ff ff ff          mov    $0xffffffff,%eax
  403bc3:       e9 51 fd ff ff          jmpq   403919 <dlerror@plt+0x1eb9>
  403bc8:       bf 48 5c 40 00          mov    $0x405c48,%edi
  403bcd:       e8 2e e7 ff ff          callq  402300 <dlerror@plt+0x8a0>
  403bd2:       b8 ff ff ff ff          mov    $0xffffffff,%eax
  403bd7:       e9 3d fd ff ff          jmpq   403919 <dlerror@plt+0x1eb9>
  403bdc:       bf 3a 58 40 00          mov    $0x40583a,%edi
  403be1:       e8 1a e7 ff ff          callq  402300 <dlerror@plt+0x8a0>
  403be6:       b8 ff ff ff ff          mov    $0xffffffff,%eax
  403beb:       e9 29 fd ff ff          jmpq   403919 <dlerror@plt+0x1eb9>
  403bf0:       bf 70 5c 40 00          mov    $0x405c70,%edi
  403bf5:       e8 06 e7 ff ff          callq  402300 <dlerror@plt+0x8a0>
  403bfa:       b8 ff ff ff ff          mov    $0xffffffff,%eax
  403bff:       e9 15 fd ff ff          jmpq   403919 <dlerror@plt+0x1eb9>
  403c04:       bf 73 58 40 00          mov    $0x405873,%edi
  403c09:       e8 f2 e6 ff ff          callq  402300 <dlerror@plt+0x8a0>
  403c0e:       b8 ff ff ff ff          mov    $0xffffffff,%eax
  403c13:       e9 01 fd ff ff          jmpq   403919 <dlerror@plt+0x1eb9>
  403c18:       bf 98 5c 40 00          mov    $0x405c98,%edi
  403c1d:       e8 de e6 ff ff          callq  402300 <dlerror@plt+0x8a0>
  403c22:       b8 ff ff ff ff          mov    $0xffffffff,%eax
  403c27:       e9 ed fc ff ff          jmpq   403919 <dlerror@plt+0x1eb9>
  403c2c:       bf f0 5c 40 00          mov    $0x405cf0,%edi
  403c31:       e8 ca e6 ff ff          callq  402300 <dlerror@plt+0x8a0>
  403c36:       b8 ff ff ff ff          mov    $0xffffffff,%eax
  403c3b:       e9 d9 fc ff ff          jmpq   403919 <dlerror@plt+0x1eb9>
  403c40:       bf c0 5c 40 00          mov    $0x405cc0,%edi
  403c45:       e8 b6 e6 ff ff          callq  402300 <dlerror@plt+0x8a0>
  403c4a:       b8 ff ff ff ff          mov    $0xffffffff,%eax
  403c4f:       e9 c5 fc ff ff          jmpq   403919 <dlerror@plt+0x1eb9>
  403c54:       bf eb 58 40 00          mov    $0x4058eb,%edi
  403c59:       e8 a2 e6 ff ff          callq  402300 <dlerror@plt+0x8a0>
  403c5e:       b8 ff ff ff ff          mov    $0xffffffff,%eax
  403c63:       e9 b1 fc ff ff          jmpq   403919 <dlerror@plt+0x1eb9>
  403c68:       bf 18 5d 40 00          mov    $0x405d18,%edi
  403c6d:       e8 8e e6 ff ff          callq  402300 <dlerror@plt+0x8a0>
  403c72:       b8 ff ff ff ff          mov    $0xffffffff,%eax
  403c77:       e9 9d fc ff ff          jmpq   403919 <dlerror@plt+0x1eb9>
  403c7c:       bf 58 5d 40 00          mov    $0x405d58,%edi
  403c81:       e8 7a e6 ff ff          callq  402300 <dlerror@plt+0x8a0>
  403c86:       b8 ff ff ff ff          mov    $0xffffffff,%eax
  403c8b:       e9 89 fc ff ff          jmpq   403919 <dlerror@plt+0x1eb9>
  403c90:       bf 38 5d 40 00          mov    $0x405d38,%edi
  403c95:       e8 66 e6 ff ff          callq  402300 <dlerror@plt+0x8a0>
  403c9a:       b8 ff ff ff ff          mov    $0xffffffff,%eax
  403c9f:       e9 75 fc ff ff          jmpq   403919 <dlerror@plt+0x1eb9>
  403ca4:       bf a8 5d 40 00          mov    $0x405da8,%edi
  403ca9:       e8 52 e6 ff ff          callq  402300 <dlerror@plt+0x8a0>
  403cae:       b8 ff ff ff ff          mov    $0xffffffff,%eax
  403cb3:       e9 61 fc ff ff          jmpq   403919 <dlerror@plt+0x1eb9>
  403cb8:       bf 80 5d 40 00          mov    $0x405d80,%edi
  403cbd:       e8 3e e6 ff ff          callq  402300 <dlerror@plt+0x8a0>
  403cc2:       b8 ff ff ff ff          mov    $0xffffffff,%eax
  403cc7:       e9 4d fc ff ff          jmpq   403919 <dlerror@plt+0x1eb9>
  403ccc:       bf 50 5e 40 00          mov    $0x405e50,%edi
  403cd1:       e8 2a e6 ff ff          callq  402300 <dlerror@plt+0x8a0>
  403cd6:       b8 ff ff ff ff          mov    $0xffffffff,%eax
  403cdb:       e9 39 fc ff ff          jmpq   403919 <dlerror@plt+0x1eb9>
  403ce0:       bf c8 5e 40 00          mov    $0x405ec8,%edi
  403ce5:       e8 16 e6 ff ff          callq  402300 <dlerror@plt+0x8a0>
  403cea:       b8 ff ff ff ff          mov    $0xffffffff,%eax
  403cef:       e9 25 fc ff ff          jmpq   403919 <dlerror@plt+0x1eb9>
  403cf4:       bf a0 5e 40 00          mov    $0x405ea0,%edi
  403cf9:       e8 02 e6 ff ff          callq  402300 <dlerror@plt+0x8a0>
  403cfe:       b8 ff ff ff ff          mov    $0xffffffff,%eax
  403d03:       e9 11 fc ff ff          jmpq   403919 <dlerror@plt+0x1eb9>
  403d08:       bf 78 5e 40 00          mov    $0x405e78,%edi
  403d0d:       e8 ee e5 ff ff          callq  402300 <dlerror@plt+0x8a0>
  403d12:       b8 ff ff ff ff          mov    $0xffffffff,%eax
  403d17:       e9 fd fb ff ff          jmpq   403919 <dlerror@plt+0x1eb9>
  403d1c:       bf 10 5f 40 00          mov    $0x405f10,%edi
  403d21:       e8 da e5 ff ff          callq  402300 <dlerror@plt+0x8a0>
  403d26:       b8 ff ff ff ff          mov    $0xffffffff,%eax
  403d2b:       e9 e9 fb ff ff          jmpq   403919 <dlerror@plt+0x1eb9>
  403d30:       bf f0 5e 40 00          mov    $0x405ef0,%edi
  403d35:       e8 c6 e5 ff ff          callq  402300 <dlerror@plt+0x8a0>
  403d3a:       b8 ff ff ff ff          mov    $0xffffffff,%eax
  403d3f:       e9 d5 fb ff ff          jmpq   403919 <dlerror@plt+0x1eb9>
  403d44:       bf b1 57 40 00          mov    $0x4057b1,%edi
  403d49:       e8 b2 e5 ff ff          callq  402300 <dlerror@plt+0x8a0>
  403d4e:       b8 ff ff ff ff          mov    $0xffffffff,%eax
  403d53:       e9 c1 fb ff ff          jmpq   403919 <dlerror@plt+0x1eb9>
  403d58:       bf 00 5e 40 00          mov    $0x405e00,%edi
  403d5d:       e8 9e e5 ff ff          callq  402300 <dlerror@plt+0x8a0>
  403d62:       b8 ff ff ff ff          mov    $0xffffffff,%eax
  403d67:       e9 ad fb ff ff          jmpq   403919 <dlerror@plt+0x1eb9>
  403d6c:       bf d8 5b 40 00          mov    $0x405bd8,%edi
  403d71:       e8 8a e5 ff ff          callq  402300 <dlerror@plt+0x8a0>
  403d76:       b8 ff ff ff ff          mov    $0xffffffff,%eax
  403d7b:       e9 99 fb ff ff          jmpq   403919 <dlerror@plt+0x1eb9>
  403d80:       bf d8 5d 40 00          mov    $0x405dd8,%edi
  403d85:       e8 76 e5 ff ff          callq  402300 <dlerror@plt+0x8a0>
  403d8a:       b8 ff ff ff ff          mov    $0xffffffff,%eax
  403d8f:       e9 85 fb ff ff          jmpq   403919 <dlerror@plt+0x1eb9>
  403d94:       bf 58 5f 40 00          mov    $0x405f58,%edi
  403d99:       e8 62 e5 ff ff          callq  402300 <dlerror@plt+0x8a0>
  403d9e:       b8 ff ff ff ff          mov    $0xffffffff,%eax
  403da3:       e9 71 fb ff ff          jmpq   403919 <dlerror@plt+0x1eb9>
  403da8:       31 c0                   xor    %eax,%eax
  403daa:       bf 08 60 40 00          mov    $0x406008,%edi
  403daf:       e8 4c e5 ff ff          callq  402300 <dlerror@plt+0x8a0>
  403db4:       b8 ff ff ff ff          mov    $0xffffffff,%eax
  403db9:       e9 5b fb ff ff          jmpq   403919 <dlerror@plt+0x1eb9>
  403dbe:       bf 30 60 40 00          mov    $0x406030,%edi
  403dc3:       e8 38 e5 ff ff          callq  402300 <dlerror@plt+0x8a0>
  403dc8:       83 c8 ff                or     $0xffffffff,%eax
  403dcb:       e9 49 fb ff ff          jmpq   403919 <dlerror@plt+0x1eb9>
  403dd0:       bf 90 5f 40 00          mov    $0x405f90,%edi
  403dd5:       e8 26 e5 ff ff          callq  402300 <dlerror@plt+0x8a0>
  403dda:       83 c8 ff                or     $0xffffffff,%eax
  403ddd:       e9 37 fb ff ff          jmpq   403919 <dlerror@plt+0x1eb9>
  403de2:       bf e0 5f 40 00          mov    $0x405fe0,%edi
  403de7:       e8 14 e5 ff ff          callq  402300 <dlerror@plt+0x8a0>
  403dec:       83 c8 ff                or     $0xffffffff,%eax
  403def:       e9 25 fb ff ff          jmpq   403919 <dlerror@plt+0x1eb9>
  403df4:       66 2e 0f 1f 84 00 00    nopw   %cs:0x0(%rax,%rax,1)
  403dfb:       00 00 00
  403dfe:       66 90                   xchg   %ax,%ax
  403e00:       48 8b 05 39 3b 20 00    mov    0x203b39(%rip),%rax        # 607940 <stderr@@GLIBC_2.2.5+0xf0>
  403e07:       ff e0                   jmpq   *%rax
  403e09:       0f 1f 80 00 00 00 00    nopl   0x0(%rax)
  403e10:       48 8b 05 31 3b 20 00    mov    0x203b31(%rip),%rax        # 607948 <stderr@@GLIBC_2.2.5+0xf8>
  403e17:       ff e0                   jmpq   *%rax
  403e19:       0f 1f 80 00 00 00 00    nopl   0x0(%rax)
  403e20:       48 8b 05 79 3a 20 00    mov    0x203a79(%rip),%rax        # 6078a0 <stderr@@GLIBC_2.2.5+0x50>
  403e27:       ff e0                   jmpq   *%rax
  403e29:       0f 1f 80 00 00 00 00    nopl   0x0(%rax)
  403e30:       48 8b 05 81 3a 20 00    mov    0x203a81(%rip),%rax        # 6078b8 <stderr@@GLIBC_2.2.5+0x68>
  403e37:       ff e0                   jmpq   *%rax
  403e39:       0f 1f 80 00 00 00 00    nopl   0x0(%rax)
  403e40:       48 8b 05 79 3a 20 00    mov    0x203a79(%rip),%rax        # 6078c0 <stderr@@GLIBC_2.2.5+0x70>
  403e47:       ff e0                   jmpq   *%rax
  403e49:       0f 1f 80 00 00 00 00    nopl   0x0(%rax)
  403e50:       41 56                   push   %r14
  403e52:       41 55                   push   %r13
  403e54:       41 54                   push   %r12
  403e56:       55                      push   %rbp
  403e57:       45 31 e4                xor    %r12d,%r12d
  403e5a:       53                      push   %rbx
  403e5b:       48 89 fd                mov    %rdi,%rbp
  403e5e:       48 81 ec 10 40 00 00    sub    $0x4010,%rsp
  403e65:       48 8b 05 34 3b 20 00    mov    0x203b34(%rip),%rax        # 6079a0 <stderr@@GLIBC_2.2.5+0x150>
  403e6c:       48 8b 5f 10             mov    0x10(%rdi),%rbx
  403e70:       48 3b 5f 18             cmp    0x18(%rdi),%rbx
  403e74:       c7 00 01 00 00 00       movl   $0x1,(%rax)
  403e7a:       48 8b 05 2f 3b 20 00    mov    0x203b2f(%rip),%rax        # 6079b0 <stderr@@GLIBC_2.2.5+0x160>
  403e81:       c7 00 01 00 00 00       movl   $0x1,(%rax)
  403e87:       48 8b 05 32 3b 20 00    mov    0x203b32(%rip),%rax        # 6079c0 <stderr@@GLIBC_2.2.5+0x170>
  403e8e:       c7 00 01 00 00 00       movl   $0x1,(%rax)
  403e94:       48 8b 05 fd 3a 20 00    mov    0x203afd(%rip),%rax        # 607998 <stderr@@GLIBC_2.2.5+0x148>
  403e9b:       c7 00 01 00 00 00       movl   $0x1,(%rax)
  403ea1:       48 8b 05 00 3b 20 00    mov    0x203b00(%rip),%rax        # 6079a8 <stderr@@GLIBC_2.2.5+0x158>
  403ea8:       c7 00 01 00 00 00       movl   $0x1,(%rax)
  403eae:       48 8b 05 d3 3a 20 00    mov    0x203ad3(%rip),%rax        # 607988 <stderr@@GLIBC_2.2.5+0x138>
  403eb5:       c7 00 00 00 00 00       movl   $0x0,(%rax)
  403ebb:       72 37                   jb     403ef4 <dlerror@plt+0x2494>
  403ebd:       e9 dd 00 00 00          jmpq   403f9f <dlerror@plt+0x253f>
  403ec2:       66 0f 1f 44 00 00       nopw   0x0(%rax,%rax,1)
  403ec8:       3c 75                   cmp    $0x75,%al
  403eca:       74 64                   je     403f30 <dlerror@plt+0x24d0>
  403ecc:       3c 76                   cmp    $0x76,%al
  403ece:       75 10                   jne    403ee0 <dlerror@plt+0x2480>
  403ed0:       48 8b 05 b1 3a 20 00    mov    0x203ab1(%rip),%rax        # 607988 <stderr@@GLIBC_2.2.5+0x138>
  403ed7:       c7 00 01 00 00 00       movl   $0x1,(%rax)
  403edd:       0f 1f 00                nopl   (%rax)
  403ee0:       48 89 de                mov    %rbx,%rsi
  403ee3:       48 89 ef                mov    %rbp,%rdi
  403ee6:       e8 b5 dd ff ff          callq  401ca0 <dlerror@plt+0x240>
  403eeb:       48 39 45 18             cmp    %rax,0x18(%rbp)
  403eef:       48 89 c3                mov    %rax,%rbx
  403ef2:       76 64                   jbe    403f58 <dlerror@plt+0x24f8>
  403ef4:       80 7b 11 6f             cmpb   $0x6f,0x11(%rbx)
  403ef8:       75 e6                   jne    403ee0 <dlerror@plt+0x2480>
  403efa:       48 8d 73 12             lea    0x12(%rbx),%rsi
  403efe:       bf 84 60 40 00          mov    $0x406084,%edi
  403f03:       b9 04 00 00 00          mov    $0x4,%ecx
  403f08:       f3 a6                   repz cmpsb %es:(%rdi),%ds:(%rsi)
  403f0a:       74 d4                   je     403ee0 <dlerror@plt+0x2480>
  403f0c:       0f b6 43 12             movzbl 0x12(%rbx),%eax
  403f10:       3c 57                   cmp    $0x57,%al
  403f12:       74 2c                   je     403f40 <dlerror@plt+0x24e0>
  403f14:       7f b2                   jg     403ec8 <dlerror@plt+0x2468>
  403f16:       3c 4f                   cmp    $0x4f,%al
  403f18:       75 c6                   jne    403ee0 <dlerror@plt+0x2480>
  403f1a:       48 8b 05 6f 3a 20 00    mov    0x203a6f(%rip),%rax        # 607990 <stderr@@GLIBC_2.2.5+0x140>
  403f21:       c7 00 01 00 00 00       movl   $0x1,(%rax)
  403f27:       eb b7                   jmp    403ee0 <dlerror@plt+0x2480>
  403f29:       0f 1f 80 00 00 00 00    nopl   0x0(%rax)
  403f30:       41 bc 01 00 00 00       mov    $0x1,%r12d
  403f36:       eb a8                   jmp    403ee0 <dlerror@plt+0x2480>
  403f38:       0f 1f 84 00 00 00 00    nopl   0x0(%rax,%rax,1)
  403f3f:       00
  403f40:       8b 05 1a 3c 21 00       mov    0x213c1a(%rip),%eax        # 617b60 <stderr@@GLIBC_2.2.5+0x10310>
  403f46:       85 c0                   test   %eax,%eax
  403f48:       74 6e                   je     403fb8 <dlerror@plt+0x2558>
  403f4a:       48 8d 7b 14             lea    0x14(%rbx),%rdi
  403f4e:       e8 ed fe ff ff          callq  403e40 <dlerror@plt+0x23e0>
  403f53:       eb 8b                   jmp    403ee0 <dlerror@plt+0x2480>
  403f55:       0f 1f 00                nopl   (%rax)
  403f58:       45 85 e4                test   %r12d,%r12d
  403f5b:       74 42                   je     403f9f <dlerror@plt+0x253f>
  403f5d:       48 8b 3d dc 38 20 00    mov    0x2038dc(%rip),%rdi        # 607840 <stdout@@GLIBC_2.2.5>
  403f64:       e8 87 d9 ff ff          callq  4018f0 <fflush@plt>
  403f69:       48 8b 3d e0 38 20 00    mov    0x2038e0(%rip),%rdi        # 607850 <stderr@@GLIBC_2.2.5>
  403f70:       e8 7b d9 ff ff          callq  4018f0 <fflush@plt>
  403f75:       48 8b 3d cc 38 20 00    mov    0x2038cc(%rip),%rdi        # 607848 <stdin@@GLIBC_2.2.5>
  403f7c:       31 f6                   xor    %esi,%esi
  403f7e:       e8 bd d7 ff ff          callq  401740 <setbuf@plt>
  403f83:       48 8b 3d b6 38 20 00    mov    0x2038b6(%rip),%rdi        # 607840 <stdout@@GLIBC_2.2.5>
  403f8a:       31 f6                   xor    %esi,%esi
  403f8c:       e8 af d7 ff ff          callq  401740 <setbuf@plt>
  403f91:       48 8b 3d b8 38 20 00    mov    0x2038b8(%rip),%rdi        # 607850 <stderr@@GLIBC_2.2.5>
  403f98:       31 f6                   xor    %esi,%esi
  403f9a:       e8 a1 d7 ff ff          callq  401740 <setbuf@plt>
  403f9f:       31 c0                   xor    %eax,%eax
  403fa1:       48 81 c4 10 40 00 00    add    $0x4010,%rsp
  403fa8:       5b                      pop    %rbx
  403fa9:       5d                      pop    %rbp
  403faa:       41 5c                   pop    %r12
  403fac:       41 5d                   pop    %r13
  403fae:       41 5e                   pop    %r14
  403fb0:       c3                      retq
  403fb1:       0f 1f 80 00 00 00 00    nopl   0x0(%rax)
  403fb8:       4c 8d 73 14             lea    0x14(%rbx),%r14
  403fbc:       ba 00 10 00 00          mov    $0x1000,%edx
  403fc1:       48 89 e7                mov    %rsp,%rdi
  403fc4:       4c 89 f6                mov    %r14,%rsi
  403fc7:       e8 e4 d6 ff ff          callq  4016b0 <mbstowcs@plt>
  403fcc:       48 83 f8 ff             cmp    $0xffffffffffffffff,%rax
  403fd0:       49 89 c5                mov    %rax,%r13
  403fd3:       74 0e                   je     403fe3 <dlerror@plt+0x2583>
  403fd5:       48 89 e7                mov    %rsp,%rdi
  403fd8:       ff 15 e2 38 20 00       callq  *0x2038e2(%rip)        # 6078c0 <stderr@@GLIBC_2.2.5+0x70>
  403fde:       e9 fd fe ff ff          jmpq   403ee0 <dlerror@plt+0x2480>
  403fe3:       31 c0                   xor    %eax,%eax
  403fe5:       4c 89 f6                mov    %r14,%rsi
  403fe8:       bf f8 60 40 00          mov    $0x4060f8,%edi
  403fed:       e8 0e e3 ff ff          callq  402300 <dlerror@plt+0x8a0>
  403ff2:       44 89 e8                mov    %r13d,%eax
  403ff5:       eb aa                   jmp    403fa1 <dlerror@plt+0x2541>
  403ff7:       66 0f 1f 84 00 00 00    nopw   0x0(%rax,%rax,1)
  403ffe:       00 00
  404000:       55                      push   %rbp
  404001:       53                      push   %rbx
  404002:       48 8d 77 38             lea    0x38(%rdi),%rsi
  404006:       48 89 fb                mov    %rdi,%rbx
  404009:       ba 40 00 00 00          mov    $0x40,%edx
  40400e:       48 81 ec 48 10 00 00    sub    $0x1048,%rsp
  404015:       8b 6f 34                mov    0x34(%rdi),%ebp
  404018:       48 89 e7                mov    %rsp,%rdi
  40401b:       0f cd                   bswap  %ebp
  40401d:       8d 45 ec                lea    -0x14(%rbp),%eax
  404020:       83 f8 09                cmp    $0x9,%eax
  404023:       0f 96 c0                setbe  %al
  404026:       0f b6 c0                movzbl %al,%eax
  404029:       89 05 31 3b 21 00       mov    %eax,0x213b31(%rip)        # 617b60 <stderr@@GLIBC_2.2.5+0x10310>
  40402f:       e8 0c d6 ff ff          callq  401640 <strncpy@plt>
  404034:       80 7c 24 3f 00          cmpb   $0x0,0x3f(%rsp)
  404039:       75 3d                   jne    404078 <dlerror@plt+0x2618>
  40403b:       48 8d b3 78 30 00 00    lea    0x3078(%rbx),%rsi
  404042:       48 8d 7c 24 40          lea    0x40(%rsp),%rdi
  404047:       48 89 e2                mov    %rsp,%rdx
  40404a:       e8 01 f1 ff ff          callq  403150 <dlerror@plt+0x16f0>
  40404f:       48 8d 7c 24 40          lea    0x40(%rsp),%rdi
  404054:       e8 a7 0f 00 00          callq  405000 <dlerror@plt+0x35a0>
  404059:       48 85 c0                test   %rax,%rax
  40405c:       74 2d                   je     40408b <dlerror@plt+0x262b>
  40405e:       89 ee                   mov    %ebp,%esi
  404060:       48 89 c7                mov    %rax,%rdi
  404063:       e8 78 f4 ff ff          callq  4034e0 <dlerror@plt+0x1a80>
  404068:       48 81 c4 48 10 00 00    add    $0x1048,%rsp
  40406f:       5b                      pop    %rbx
  404070:       5d                      pop    %rbp
  404071:       c3                      retq
  404072:       66 0f 1f 44 00 00       nopw   0x0(%rax,%rax,1)
  404078:       31 c0                   xor    %eax,%eax
  40407a:       bf 40 61 40 00          mov    $0x406140,%edi
  40407f:       e8 7c e2 ff ff          callq  402300 <dlerror@plt+0x8a0>
  404084:       b8 ff ff ff ff          mov    $0xffffffff,%eax
  404089:       eb dd                   jmp    404068 <dlerror@plt+0x2608>
  40408b:       e8 d0 d9 ff ff          callq  401a60 <dlerror@plt>
  404090:       48 8d 74 24 40          lea    0x40(%rsp),%rsi
  404095:       48 89 c2                mov    %rax,%rdx
  404098:       bf 60 61 40 00          mov    $0x406160,%edi
  40409d:       31 c0                   xor    %eax,%eax
  40409f:       e8 5c e2 ff ff          callq  402300 <dlerror@plt+0x8a0>
  4040a4:       b8 ff ff ff ff          mov    $0xffffffff,%eax
  4040a9:       eb bd                   jmp    404068 <dlerror@plt+0x2608>
  4040ab:       0f 1f 44 00 00          nopl   0x0(%rax,%rax,1)
  4040b0:       31 c0                   xor    %eax,%eax
  4040b2:       c3                      retq
  4040b3:       66 66 66 66 2e 0f 1f    data16 data16 data16 nopw %cs:0x0(%rax,%rax,1)
  4040ba:       84 00 00 00 00 00
  4040c0:       55                      push   %rbp
  4040c1:       53                      push   %rbx
  4040c2:       48 89 fd                mov    %rdi,%rbp
  4040c5:       48 89 eb                mov    %rbp,%rbx
  4040c8:       48 83 ec 08             sub    $0x8,%rsp
  4040cc:       48 8b 3f                mov    (%rdi),%rdi
  4040cf:       48 85 ff                test   %rdi,%rdi
  4040d2:       74 15                   je     4040e9 <dlerror@plt+0x2689>
  4040d4:       0f 1f 40 00             nopl   0x0(%rax)
  4040d8:       48 83 c3 08             add    $0x8,%rbx
  4040dc:       e8 2f d5 ff ff          callq  401610 <free@plt>
  4040e1:       48 8b 3b                mov    (%rbx),%rdi
  4040e4:       48 85 ff                test   %rdi,%rdi
  4040e7:       75 ef                   jne    4040d8 <dlerror@plt+0x2678>
  4040e9:       48 83 c4 08             add    $0x8,%rsp
  4040ed:       48 89 ef                mov    %rbp,%rdi
  4040f0:       5b                      pop    %rbx
  4040f1:       5d                      pop    %rbp
  4040f2:       e9 19 d5 ff ff          jmpq   401610 <free@plt>
  4040f7:       66 0f 1f 84 00 00 00    nopw   0x0(%rax,%rax,1)
  4040fe:       00 00
  404100:       41 57                   push   %r15
  404102:       41 56                   push   %r14
  404104:       41 55                   push   %r13
  404106:       41 54                   push   %r12
  404108:       49 89 f5                mov    %rsi,%r13
  40410b:       55                      push   %rbp
  40410c:       53                      push   %rbx
  40410d:       31 f6                   xor    %esi,%esi
  40410f:       89 fb                   mov    %edi,%ebx
  404111:       31 ff                   xor    %edi,%edi
  404113:       48 83 ec 18             sub    $0x18,%rsp
  404117:       e8 44 d8 ff ff          callq  401960 <setlocale@plt>
  40411c:       48 89 c7                mov    %rax,%rdi
  40411f:       e8 8c d6 ff ff          callq  4017b0 <__strdup@plt>
  404124:       48 85 c0                test   %rax,%rax
  404127:       49 89 c7                mov    %rax,%r15
  40412a:       0f 84 da 00 00 00       je     40420a <dlerror@plt+0x27aa>
  404130:       44 8d 73 01             lea    0x1(%rbx),%r14d
  404134:       be 01 00 00 00          mov    $0x1,%esi
  404139:       4d 63 f6                movslq %r14d,%r14
  40413c:       4a 8d 04 f5 00 00 00    lea    0x0(,%r14,8),%rax
  404143:       00
  404144:       48 89 c7                mov    %rax,%rdi
  404147:       48 89 44 24 08          mov    %rax,0x8(%rsp)
  40414c:       e8 8f d6 ff ff          callq  4017e0 <calloc@plt>
  404151:       48 85 c0                test   %rax,%rax
  404154:       48 89 c5                mov    %rax,%rbp
  404157:       0f 84 ad 00 00 00       je     40420a <dlerror@plt+0x27aa>
  40415d:       31 ff                   xor    %edi,%edi
  40415f:       be 58 53 40 00          mov    $0x405358,%esi
  404164:       e8 f7 d7 ff ff          callq  401960 <setlocale@plt>
  404169:       85 db                   test   %ebx,%ebx
  40416b:       7e 6b                   jle    4041d8 <dlerror@plt+0x2778>
  40416d:       83 eb 01                sub    $0x1,%ebx
  404170:       45 31 f6                xor    %r14d,%r14d
  404173:       48 83 c3 01             add    $0x1,%rbx
  404177:       eb 10                   jmp    404189 <dlerror@plt+0x2729>
  404179:       0f 1f 80 00 00 00 00    nopl   0x0(%rax)
  404180:       49 83 c6 01             add    $0x1,%r14
  404184:       49 39 de                cmp    %rbx,%r14
  404187:       74 4f                   je     4041d8 <dlerror@plt+0x2778>
  404189:       31 f6                   xor    %esi,%esi
  40418b:       4b 8b 7c f5 00          mov    0x0(%r13,%r14,8),%rdi
  404190:       ff 15 fa 36 20 00       callq  *0x2036fa(%rip)        # 607890 <stderr@@GLIBC_2.2.5+0x40>
  404196:       48 85 c0                test   %rax,%rax
  404199:       4a 89 44 f5 00          mov    %rax,0x0(%rbp,%r14,8)
  40419e:       75 e0                   jne    404180 <dlerror@plt+0x2720>
  4041a0:       48 89 ef                mov    %rbp,%rdi
  4041a3:       e8 18 ff ff ff          callq  4040c0 <dlerror@plt+0x2660>
  4041a8:       4c 89 ff                mov    %r15,%rdi
  4041ab:       e8 60 d4 ff ff          callq  401610 <free@plt>
  4041b0:       41 8d 76 01             lea    0x1(%r14),%esi
  4041b4:       31 c0                   xor    %eax,%eax
  4041b6:       bf 90 61 40 00          mov    $0x406190,%edi
  4041bb:       e8 40 e1 ff ff          callq  402300 <dlerror@plt+0x8a0>
  4041c0:       31 c0                   xor    %eax,%eax
  4041c2:       48 83 c4 18             add    $0x18,%rsp
  4041c6:       5b                      pop    %rbx
  4041c7:       5d                      pop    %rbp
  4041c8:       41 5c                   pop    %r12
  4041ca:       41 5d                   pop    %r13
  4041cc:       41 5e                   pop    %r14
  4041ce:       41 5f                   pop    %r15
  4041d0:       c3                      retq
  4041d1:       0f 1f 80 00 00 00 00    nopl   0x0(%rax)
  4041d8:       48 8b 44 24 08          mov    0x8(%rsp),%rax
  4041dd:       4c 89 fe                mov    %r15,%rsi
  4041e0:       31 ff                   xor    %edi,%edi
  4041e2:       48 c7 44 05 f8 00 00    movq   $0x0,-0x8(%rbp,%rax,1)
  4041e9:       00 00
  4041eb:       e8 70 d7 ff ff          callq  401960 <setlocale@plt>
  4041f0:       4c 89 ff                mov    %r15,%rdi
  4041f3:       e8 18 d4 ff ff          callq  401610 <free@plt>
  4041f8:       48 83 c4 18             add    $0x18,%rsp
  4041fc:       48 89 e8                mov    %rbp,%rax
  4041ff:       5b                      pop    %rbx
  404200:       5d                      pop    %rbp
  404201:       41 5c                   pop    %r12
  404203:       41 5d                   pop    %r13
  404205:       41 5e                   pop    %r14
  404207:       41 5f                   pop    %r15
  404209:       c3                      retq
  40420a:       31 c0                   xor    %eax,%eax
  40420c:       bf 89 60 40 00          mov    $0x406089,%edi
  404211:       e8 ea e0 ff ff          callq  402300 <dlerror@plt+0x8a0>
  404216:       31 c0                   xor    %eax,%eax
  404218:       eb a8                   jmp    4041c2 <dlerror@plt+0x2762>
  40421a:       66 0f 1f 44 00 00       nopw   0x0(%rax,%rax,1)
  404220:       55                      push   %rbp
  404221:       53                      push   %rbx
  404222:       48 89 f5                mov    %rsi,%rbp
  404225:       48 89 fb                mov    %rdi,%rbx
  404228:       31 f6                   xor    %esi,%esi
  40422a:       31 ff                   xor    %edi,%edi
  40422c:       48 83 ec 18             sub    $0x18,%rsp
  404230:       48 89 54 24 08          mov    %rdx,0x8(%rsp)
  404235:       e8 26 d7 ff ff          callq  401960 <setlocale@plt>
  40423a:       48 89 c7                mov    %rax,%rdi
  40423d:       e8 6e d5 ff ff          callq  4017b0 <__strdup@plt>
  404242:       31 ff                   xor    %edi,%edi
  404244:       be 58 53 40 00          mov    $0x405358,%esi
  404249:       48 89 05 08 39 21 00    mov    %rax,0x213908(%rip)        # 617b58 <stderr@@GLIBC_2.2.5+0x10308>
  404250:       e8 0b d7 ff ff          callq  401960 <setlocale@plt>
  404255:       48 89 ef                mov    %rbp,%rdi
  404258:       48 8d 74 24 08          lea    0x8(%rsp),%rsi
  40425d:       ff 15 2d 36 20 00       callq  *0x20362d(%rip)        # 607890 <stderr@@GLIBC_2.2.5+0x40>
  404263:       48 8b 35 ee 38 21 00    mov    0x2138ee(%rip),%rsi        # 617b58 <stderr@@GLIBC_2.2.5+0x10308>
  40426a:       48 89 c5                mov    %rax,%rbp
  40426d:       31 ff                   xor    %edi,%edi
  40426f:       e8 ec d6 ff ff          callq  401960 <setlocale@plt>
  404274:       48 85 ed                test   %rbp,%rbp
  404277:       74 27                   je     4042a0 <dlerror@plt+0x2840>
  404279:       48 8b 54 24 08          mov    0x8(%rsp),%rdx
  40427e:       48 89 ee                mov    %rbp,%rsi
  404281:       48 89 df                mov    %rbx,%rdi
  404284:       e8 47 d5 ff ff          callq  4017d0 <wcsncpy@plt>
  404289:       48 89 ef                mov    %rbp,%rdi
  40428c:       e8 7f d3 ff ff          callq  401610 <free@plt>
  404291:       48 89 d8                mov    %rbx,%rax
  404294:       48 83 c4 18             add    $0x18,%rsp
  404298:       5b                      pop    %rbx
  404299:       5d                      pop    %rbp
  40429a:       c3                      retq
  40429b:       0f 1f 44 00 00          nopl   0x0(%rax,%rax,1)
  4042a0:       31 c0                   xor    %eax,%eax
  4042a2:       eb f0                   jmp    404294 <dlerror@plt+0x2834>
  4042a4:       66 66 66 2e 0f 1f 84    data16 data16 nopw %cs:0x0(%rax,%rax,1)
  4042ab:       00 00 00 00 00
  4042b0:       55                      push   %rbp
  4042b1:       53                      push   %rbx
  4042b2:       48 8d 77 78             lea    0x78(%rdi),%rsi
  4042b6:       48 89 fb                mov    %rdi,%rbx
  4042b9:       ba 00 10 00 00          mov    $0x1000,%edx
  4042be:       48 83 ec 08             sub    $0x8,%rsp
  4042c2:       44 8b 0d 97 38 21 00    mov    0x213897(%rip),%r9d        # 617b60 <stderr@@GLIBC_2.2.5+0x10310>
  4042c9:       45 85 c9                test   %r9d,%r9d
  4042cc:       0f 84 c6 01 00 00       je     404498 <dlerror@plt+0x2a38>
  4042d2:       bf 40 6b 61 00          mov    $0x616b40,%edi
  4042d7:       e8 64 d3 ff ff          callq  401640 <strncpy@plt>
  4042dc:       bf 40 6b 61 00          mov    $0x616b40,%edi
  4042e1:       e8 2a fb ff ff          callq  403e10 <dlerror@plt+0x23b0>
  4042e6:       44 8b 05 73 38 21 00    mov    0x213873(%rip),%r8d        # 617b60 <stderr@@GLIBC_2.2.5+0x10310>
  4042ed:       48 8d ab 78 30 00 00    lea    0x3078(%rbx),%rbp
  4042f4:       48 89 ef                mov    %rbp,%rdi
  4042f7:       45 85 c0                test   %r8d,%r8d
  4042fa:       0f 85 c0 01 00 00       jne    4044c0 <dlerror@plt+0x2a60>
  404300:       e8 2b d4 ff ff          callq  401730 <strlen@plt>
  404305:       b9 0e 20 00 00          mov    $0x200e,%ecx
  40430a:       48 89 c2                mov    %rax,%rdx
  40430d:       48 89 ee                mov    %rbp,%rsi
  404310:       bf c0 0a 61 00          mov    $0x610ac0,%edi
  404315:       e8 16 d6 ff ff          callq  401930 <__strncpy_chk@plt>
  40431a:       ba c0 0a 61 00          mov    $0x610ac0,%edx
  40431f:       8b 0a                   mov    (%rdx),%ecx
  404321:       48 83 c2 04             add    $0x4,%rdx
  404325:       8d 81 ff fe fe fe       lea    -0x1010101(%rcx),%eax
  40432b:       f7 d1                   not    %ecx
  40432d:       21 c8                   and    %ecx,%eax
  40432f:       25 80 80 80 80          and    $0x80808080,%eax
  404334:       74 e9                   je     40431f <dlerror@plt+0x28bf>
  404336:       89 c1                   mov    %eax,%ecx
  404338:       be 2f 00 00 00          mov    $0x2f,%esi
  40433d:       bf 3a 00 00 00          mov    $0x3a,%edi
  404342:       c1 e9 10                shr    $0x10,%ecx
  404345:       a9 80 80 00 00          test   $0x8080,%eax
  40434a:       0f 44 c1                cmove  %ecx,%eax
  40434d:       48 8d 4a 02             lea    0x2(%rdx),%rcx
  404351:       48 0f 44 d1             cmove  %rcx,%rdx
  404355:       00 c0                   add    %al,%al
  404357:       48 83 da 03             sbb    $0x3,%rdx
  40435b:       48 81 ea c0 0a 61 00    sub    $0x610ac0,%rdx
  404362:       48 8d 8a c0 0a 61 00    lea    0x610ac0(%rdx),%rcx
  404369:       66 89 b2 c0 0a 61 00    mov    %si,0x610ac0(%rdx)
  404370:       48 8d 82 c1 0a 61 00    lea    0x610ac1(%rdx),%rax
  404377:       48 ba 62 61 73 65 5f    movabs $0x62696c5f65736162,%rdx
  40437e:       6c 69 62
  404381:       48 89 51 01             mov    %rdx,0x1(%rcx)
  404385:       48 b9 72 61 72 79 2e    movabs $0x70697a2e79726172,%rcx
  40438c:       7a 69 70
  40438f:       66 89 78 10             mov    %di,0x10(%rax)
  404393:       48 89 48 08             mov    %rcx,0x8(%rax)
  404397:       48 89 ef                mov    %rbp,%rdi
  40439a:       e8 91 d3 ff ff          callq  401730 <strlen@plt>
  40439f:       b9 0e 20 00 00          mov    $0x200e,%ecx
  4043a4:       48 89 c2                mov    %rax,%rdx
  4043a7:       48 89 ee                mov    %rbp,%rsi
  4043aa:       bf c0 0a 61 00          mov    $0x610ac0,%edi
  4043af:       e8 6c d6 ff ff          callq  401a20 <__strncat_chk@plt>
  4043b4:       ba 00 10 00 00          mov    $0x1000,%edx
  4043b9:       be c0 0a 61 00          mov    $0x610ac0,%esi
  4043be:       bf 80 ca 60 00          mov    $0x60ca80,%edi
  4043c3:       e8 58 fe ff ff          callq  404220 <dlerror@plt+0x27c0>
  4043c8:       48 85 c0                test   %rax,%rax
  4043cb:       0f 84 a3 01 00 00       je     404574 <dlerror@plt+0x2b14>
  4043d1:       bf 80 ca 60 00          mov    $0x60ca80,%edi
  4043d6:       ff 15 7c 35 20 00       callq  *0x20357c(%rip)        # 607958 <stderr@@GLIBC_2.2.5+0x108>
  4043dc:       8b 0d 7e 37 21 00       mov    0x21377e(%rip),%ecx        # 617b60 <stderr@@GLIBC_2.2.5+0x10310>
  4043e2:       85 c9                   test   %ecx,%ecx
  4043e4:       0f 85 f0 00 00 00       jne    4044da <dlerror@plt+0x2a7a>
  4043ea:       ba 00 10 00 00          mov    $0x1000,%edx
  4043ef:       48 89 ee                mov    %rbp,%rsi
  4043f2:       bf 00 7a 60 00          mov    $0x607a00,%edi
  4043f7:       e8 24 fe ff ff          callq  404220 <dlerror@plt+0x27c0>
  4043fc:       48 85 c0                test   %rax,%rax
  4043ff:       0f 84 5b 01 00 00       je     404560 <dlerror@plt+0x2b00>
  404405:       bf 00 7a 60 00          mov    $0x607a00,%edi
  40440a:       ff 15 30 35 20 00       callq  *0x203530(%rip)        # 607940 <stderr@@GLIBC_2.2.5+0xf0>
  404410:       48 89 df                mov    %rbx,%rdi
  404413:       e8 38 fa ff ff          callq  403e50 <dlerror@plt+0x23f0>
  404418:       ff 15 42 35 20 00       callq  *0x203542(%rip)        # 607960 <stderr@@GLIBC_2.2.5+0x110>
  40441e:       8b 15 3c 37 21 00       mov    0x21373c(%rip),%edx        # 617b60 <stderr@@GLIBC_2.2.5+0x10310>
  404424:       85 d2                   test   %edx,%edx
  404426:       0f 84 d4 00 00 00       je     404500 <dlerror@plt+0x2aa0>
  40442c:       bf c0 0a 61 00          mov    $0x610ac0,%edi
  404431:       e8 ea f9 ff ff          callq  403e20 <dlerror@plt+0x23c0>
  404436:       8b 05 24 37 21 00       mov    0x213724(%rip),%eax        # 617b60 <stderr@@GLIBC_2.2.5+0x10310>
  40443c:       48 8b b3 88 40 00 00    mov    0x4088(%rbx),%rsi
  404443:       8b bb 80 40 00 00       mov    0x4080(%rbx),%edi
  404449:       85 c0                   test   %eax,%eax
  40444b:       0f 85 bf 00 00 00       jne    404510 <dlerror@plt+0x2ab0>
  404451:       e8 aa fc ff ff          callq  404100 <dlerror@plt+0x26a0>
  404456:       48 85 c0                test   %rax,%rax
  404459:       48 89 c5                mov    %rax,%rbp
  40445c:       0f 84 e8 00 00 00       je     40454a <dlerror@plt+0x2aea>
  404462:       8b bb 80 40 00 00       mov    0x4080(%rbx),%edi
  404468:       31 d2                   xor    %edx,%edx
  40446a:       48 89 c6                mov    %rax,%rsi
  40446d:       ff 15 45 34 20 00       callq  *0x203445(%rip)        # 6078b8 <stderr@@GLIBC_2.2.5+0x68>
  404473:       48 89 ef                mov    %rbp,%rdi
  404476:       e8 45 fc ff ff          callq  4040c0 <dlerror@plt+0x2660>
  40447b:       ff 15 a7 34 20 00       callq  *0x2034a7(%rip)        # 607928 <stderr@@GLIBC_2.2.5+0xd8>
  404481:       48 85 c0                test   %rax,%rax
  404484:       0f 85 96 00 00 00       jne    404520 <dlerror@plt+0x2ac0>
  40448a:       48 83 c4 08             add    $0x8,%rsp
  40448e:       5b                      pop    %rbx
  40448f:       5d                      pop    %rbp
  404490:       c3                      retq
  404491:       0f 1f 80 00 00 00 00    nopl   0x0(%rax)
  404498:       bf 00 2b 61 00          mov    $0x612b00,%edi
  40449d:       e8 7e fd ff ff          callq  404220 <dlerror@plt+0x27c0>
  4044a2:       48 85 c0                test   %rax,%rax
  4044a5:       0f 84 8b 00 00 00       je     404536 <dlerror@plt+0x2ad6>
  4044ab:       bf 00 2b 61 00          mov    $0x612b00,%edi
  4044b0:       ff 15 92 34 20 00       callq  *0x203492(%rip)        # 607948 <stderr@@GLIBC_2.2.5+0xf8>
  4044b6:       e9 2b fe ff ff          jmpq   4042e6 <dlerror@plt+0x2886>
  4044bb:       0f 1f 44 00 00          nopl   0x0(%rax,%rax,1)
  4044c0:       e8 6b d2 ff ff          callq  401730 <strlen@plt>
  4044c5:       b9 0e 20 00 00          mov    $0x200e,%ecx
  4044ca:       48 89 c2                mov    %rax,%rdx
  4044cd:       48 89 ee                mov    %rbp,%rsi
  4044d0:       bf c0 0a 61 00          mov    $0x610ac0,%edi
  4044d5:       e8 56 d4 ff ff          callq  401930 <__strncpy_chk@plt>
  4044da:       ba 01 10 00 00          mov    $0x1001,%edx
  4044df:       48 89 ee                mov    %rbp,%rsi
  4044e2:       bf 40 ba 60 00          mov    $0x60ba40,%edi
  4044e7:       e8 54 d4 ff ff          callq  401940 <__strcpy_chk@plt>
  4044ec:       bf 40 ba 60 00          mov    $0x60ba40,%edi
  4044f1:       e8 0a f9 ff ff          callq  403e00 <dlerror@plt+0x23a0>
  4044f6:       e9 15 ff ff ff          jmpq   404410 <dlerror@plt+0x29b0>
  4044fb:       0f 1f 44 00 00          nopl   0x0(%rax,%rax,1)
  404500:       bf 80 ca 60 00          mov    $0x60ca80,%edi
  404505:       ff 15 95 33 20 00       callq  *0x203395(%rip)        # 6078a0 <stderr@@GLIBC_2.2.5+0x50>
  40450b:       e9 26 ff ff ff          jmpq   404436 <dlerror@plt+0x29d6>
  404510:       31 d2                   xor    %edx,%edx
  404512:       e8 19 f9 ff ff          callq  403e30 <dlerror@plt+0x23d0>
  404517:       e9 5f ff ff ff          jmpq   40447b <dlerror@plt+0x2a1b>
  40451c:       0f 1f 40 00             nopl   0x0(%rax)
  404520:       31 c0                   xor    %eax,%eax
  404522:       bf 70 62 40 00          mov    $0x406270,%edi
  404527:       e8 d4 dd ff ff          callq  402300 <dlerror@plt+0x8a0>
  40452c:       b8 ff ff ff ff          mov    $0xffffffff,%eax
  404531:       e9 54 ff ff ff          jmpq   40448a <dlerror@plt+0x2a2a>
  404536:       bf d0 61 40 00          mov    $0x4061d0,%edi
  40453b:       e8 c0 dd ff ff          callq  402300 <dlerror@plt+0x8a0>
  404540:       b8 ff ff ff ff          mov    $0xffffffff,%eax
  404545:       e9 40 ff ff ff          jmpq   40448a <dlerror@plt+0x2a2a>
  40454a:       31 c0                   xor    %eax,%eax
  40454c:       bf 48 62 40 00          mov    $0x406248,%edi
  404551:       e8 aa dd ff ff          callq  402300 <dlerror@plt+0x8a0>
  404556:       b8 ff ff ff ff          mov    $0xffffffff,%eax
  40455b:       e9 2a ff ff ff          jmpq   40448a <dlerror@plt+0x2a2a>
  404560:       bf 20 62 40 00          mov    $0x406220,%edi
  404565:       e8 96 dd ff ff          callq  402300 <dlerror@plt+0x8a0>
  40456a:       b8 ff ff ff ff          mov    $0xffffffff,%eax
  40456f:       e9 16 ff ff ff          jmpq   40448a <dlerror@plt+0x2a2a>
  404574:       31 c0                   xor    %eax,%eax
  404576:       bf f8 61 40 00          mov    $0x4061f8,%edi
  40457b:       e8 80 dd ff ff          callq  402300 <dlerror@plt+0x8a0>
  404580:       b8 ff ff ff ff          mov    $0xffffffff,%eax
  404585:       e9 00 ff ff ff          jmpq   40448a <dlerror@plt+0x2a2a>
  40458a:       66 0f 1f 44 00 00       nopw   0x0(%rax,%rax,1)
  404590:       8b 15 ca 35 21 00       mov    0x2135ca(%rip),%edx        # 617b60 <stderr@@GLIBC_2.2.5+0x10310>
  404596:       41 56                   push   %r14
  404598:       41 55                   push   %r13
  40459a:       41 54                   push   %r12
  40459c:       55                      push   %rbp
  40459d:       48 89 fd                mov    %rdi,%rbp
  4045a0:       53                      push   %rbx
  4045a1:       85 d2                   test   %edx,%edx
  4045a3:       48 8d bf 78 30 00 00    lea    0x3078(%rdi),%rdi
  4045aa:       0f 84 38 01 00 00       je     4046e8 <dlerror@plt+0x2c88>
  4045b0:       ff 15 12 33 20 00       callq  *0x203312(%rip)        # 6078c8 <stderr@@GLIBC_2.2.5+0x78>
  4045b6:       48 85 c0                test   %rax,%rax
  4045b9:       0f 84 34 01 00 00       je     4046f3 <dlerror@plt+0x2c93>
  4045bf:       48 89 c6                mov    %rax,%rsi
  4045c2:       bf 98 60 40 00          mov    $0x406098,%edi
  4045c7:       ff 15 db 32 20 00       callq  *0x2032db(%rip)        # 6078a8 <stderr@@GLIBC_2.2.5+0x58>
  4045cd:       bf a1 60 40 00          mov    $0x4060a1,%edi
  4045d2:       ff 15 30 33 20 00       callq  *0x203330(%rip)        # 607908 <stderr@@GLIBC_2.2.5+0xb8>
  4045d8:       48 89 c7                mov    %rax,%rdi
  4045db:       ff 15 07 33 20 00       callq  *0x203307(%rip)        # 6078e8 <stderr@@GLIBC_2.2.5+0x98>
  4045e1:       be a9 60 40 00          mov    $0x4060a9,%esi
  4045e6:       48 89 c7                mov    %rax,%rdi
  4045e9:       ff 15 49 33 20 00       callq  *0x203349(%rip)        # 607938 <stderr@@GLIBC_2.2.5+0xe8>
  4045ef:       48 8b 5d 10             mov    0x10(%rbp),%rbx
  4045f3:       48 3b 5d 18             cmp    0x18(%rbp),%rbx
  4045f7:       49 89 c5                mov    %rax,%r13
  4045fa:       72 24                   jb     404620 <dlerror@plt+0x2bc0>
  4045fc:       e9 d7 00 00 00          jmpq   4046d8 <dlerror@plt+0x2c78>
  404601:       0f 1f 80 00 00 00 00    nopl   0x0(%rax)
  404608:       48 89 de                mov    %rbx,%rsi
  40460b:       48 89 ef                mov    %rbp,%rdi
  40460e:       e8 8d d6 ff ff          callq  401ca0 <dlerror@plt+0x240>
  404613:       48 39 45 18             cmp    %rax,0x18(%rbp)
  404617:       48 89 c3                mov    %rax,%rbx
  40461a:       0f 86 b8 00 00 00       jbe    4046d8 <dlerror@plt+0x2c78>
  404620:       0f b6 53 11             movzbl 0x11(%rbx),%edx
  404624:       83 e2 df                and    $0xffffffdf,%edx
  404627:       80 fa 4d                cmp    $0x4d,%dl
  40462a:       75 dc                   jne    404608 <dlerror@plt+0x2ba8>
  40462c:       48 89 de                mov    %rbx,%rsi
  40462f:       48 89 ef                mov    %rbp,%rdi
  404632:       e8 99 d6 ff ff          callq  401cd0 <dlerror@plt+0x270>
  404637:       49 89 c4                mov    %rax,%r12
  40463a:       8b 05 20 35 21 00       mov    0x213520(%rip),%eax        # 617b60 <stderr@@GLIBC_2.2.5+0x10310>
  404640:       8b 4b 0c                mov    0xc(%rbx),%ecx
  404643:       85 c0                   test   %eax,%eax
  404645:       0f c9                   bswap  %ecx
  404647:       74 57                   je     4046a0 <dlerror@plt+0x2c40>
  404649:       83 e9 08                sub    $0x8,%ecx
  40464c:       31 c0                   xor    %eax,%eax
  40464e:       49 8d 54 24 08          lea    0x8(%r12),%rdx
  404653:       be af 60 40 00          mov    $0x4060af,%esi
  404658:       4c 89 ef                mov    %r13,%rdi
  40465b:       4c 8d 73 12             lea    0x12(%rbx),%r14
  40465f:       ff 15 7b 32 20 00       callq  *0x20327b(%rip)        # 6078e0 <stderr@@GLIBC_2.2.5+0x90>
  404665:       48 85 c0                test   %rax,%rax
  404668:       74 57                   je     4046c1 <dlerror@plt+0x2c61>
  40466a:       48 89 c6                mov    %rax,%rsi
  40466d:       4c 89 f7                mov    %r14,%rdi
  404670:       ff 15 9a 32 20 00       callq  *0x20329a(%rip)        # 607910 <stderr@@GLIBC_2.2.5+0xc0>
  404676:       48 85 c0                test   %rax,%rax
  404679:       74 46                   je     4046c1 <dlerror@plt+0x2c61>
  40467b:       ff 15 a7 32 20 00       callq  *0x2032a7(%rip)        # 607928 <stderr@@GLIBC_2.2.5+0xd8>
  404681:       48 85 c0                test   %rax,%rax
  404684:       74 0c                   je     404692 <dlerror@plt+0x2c32>
  404686:       ff 15 94 32 20 00       callq  *0x203294(%rip)        # 607920 <stderr@@GLIBC_2.2.5+0xd0>
  40468c:       ff 15 9e 32 20 00       callq  *0x20329e(%rip)        # 607930 <stderr@@GLIBC_2.2.5+0xe0>
  404692:       4c 89 e7                mov    %r12,%rdi
  404695:       e8 76 cf ff ff          callq  401610 <free@plt>
  40469a:       e9 69 ff ff ff          jmpq   404608 <dlerror@plt+0x2ba8>
  40469f:       90                      nop
  4046a0:       83 e9 0c                sub    $0xc,%ecx
  4046a3:       31 c0                   xor    %eax,%eax
  4046a5:       49 8d 54 24 0c          lea    0xc(%r12),%rdx
  4046aa:       be b2 60 40 00          mov    $0x4060b2,%esi
  4046af:       4c 89 ef                mov    %r13,%rdi
  4046b2:       4c 8d 73 12             lea    0x12(%rbx),%r14
  4046b6:       ff 15 24 32 20 00       callq  *0x203224(%rip)        # 6078e0 <stderr@@GLIBC_2.2.5+0x90>
  4046bc:       48 85 c0                test   %rax,%rax
  4046bf:       75 a9                   jne    40466a <dlerror@plt+0x2c0a>
  4046c1:       4c 89 f6                mov    %r14,%rsi
  4046c4:       bf b5 60 40 00          mov    $0x4060b5,%edi
  4046c9:       31 c0                   xor    %eax,%eax
  4046cb:       e8 30 dc ff ff          callq  402300 <dlerror@plt+0x8a0>
  4046d0:       eb a9                   jmp    40467b <dlerror@plt+0x2c1b>
  4046d2:       66 0f 1f 44 00 00       nopw   0x0(%rax,%rax,1)
  4046d8:       31 c0                   xor    %eax,%eax
  4046da:       5b                      pop    %rbx
  4046db:       5d                      pop    %rbp
  4046dc:       41 5c                   pop    %r12
  4046de:       41 5d                   pop    %r13
  4046e0:       41 5e                   pop    %r14
  4046e2:       c3                      retq
  4046e3:       0f 1f 44 00 00          nopl   0x0(%rax,%rax,1)
  4046e8:       ff 15 8a 31 20 00       callq  *0x20318a(%rip)        # 607878 <stderr@@GLIBC_2.2.5+0x28>
  4046ee:       e9 c3 fe ff ff          jmpq   4045b6 <dlerror@plt+0x2b56>
  4046f3:       bf 98 62 40 00          mov    $0x406298,%edi
  4046f8:       e8 03 dc ff ff          callq  402300 <dlerror@plt+0x8a0>
  4046fd:       b8 ff ff ff ff          mov    $0xffffffff,%eax
  404702:       eb d6                   jmp    4046da <dlerror@plt+0x2c7a>
  404704:       66 66 66 2e 0f 1f 84    data16 data16 nopw %cs:0x0(%rax,%rax,1)
  40470b:       00 00 00 00 00
  404710:       55                      push   %rbp
  404711:       53                      push   %rbx
  404712:       48 83 ec 08             sub    $0x8,%rsp
  404716:       8b 5e 04                mov    0x4(%rsi),%ebx
  404719:       8b 05 41 34 21 00       mov    0x213441(%rip),%eax        # 617b60 <stderr@@GLIBC_2.2.5+0x10310>
  40471f:       0f cb                   bswap  %ebx
  404721:       03 5f 08                add    0x8(%rdi),%ebx
  404724:       85 c0                   test   %eax,%eax
  404726:       74 48                   je     404770 <dlerror@plt+0x2d10>
  404728:       48 8d 77 78             lea    0x78(%rdi),%rsi
  40472c:       89 da                   mov    %ebx,%edx
  40472e:       bf c6 60 40 00          mov    $0x4060c6,%edi
  404733:       31 c0                   xor    %eax,%eax
  404735:       ff 15 4d 31 20 00       callq  *0x20314d(%rip)        # 607888 <stderr@@GLIBC_2.2.5+0x38>
  40473b:       48 89 c3                mov    %rax,%rbx
  40473e:       bf d2 60 40 00          mov    $0x4060d2,%edi
  404743:       ff 15 67 31 20 00       callq  *0x203167(%rip)        # 6078b0 <stderr@@GLIBC_2.2.5+0x60>
  404749:       48 85 c0                test   %rax,%rax
  40474c:       74 65                   je     4047b3 <dlerror@plt+0x2d53>
  40474e:       48 89 de                mov    %rbx,%rsi
  404751:       48 89 c7                mov    %rax,%rdi
  404754:       ff 15 a6 31 20 00       callq  *0x2031a6(%rip)        # 607900 <stderr@@GLIBC_2.2.5+0xb0>
  40475a:       89 c3                   mov    %eax,%ebx
  40475c:       31 c0                   xor    %eax,%eax
  40475e:       85 db                   test   %ebx,%ebx
  404760:       75 3e                   jne    4047a0 <dlerror@plt+0x2d40>
  404762:       48 83 c4 08             add    $0x8,%rsp
  404766:       5b                      pop    %rbx
  404767:       5d                      pop    %rbp
  404768:       c3                      retq
  404769:       0f 1f 80 00 00 00 00    nopl   0x0(%rax)
  404770:       48 83 c7 78             add    $0x78,%rdi
  404774:       ff 15 fe 30 20 00       callq  *0x2030fe(%rip)        # 607878 <stderr@@GLIBC_2.2.5+0x28>
  40477a:       48 89 c5                mov    %rax,%rbp
  40477d:       89 da                   mov    %ebx,%edx
  40477f:       48 89 c6                mov    %rax,%rsi
  404782:       bf cc 60 40 00          mov    $0x4060cc,%edi
  404787:       31 c0                   xor    %eax,%eax
  404789:       ff 15 f1 30 20 00       callq  *0x2030f1(%rip)        # 607880 <stderr@@GLIBC_2.2.5+0x30>
  40478f:       48 89 ef                mov    %rbp,%rdi
  404792:       48 89 c3                mov    %rax,%rbx
  404795:       ff 15 dd 31 20 00       callq  *0x2031dd(%rip)        # 607978 <stderr@@GLIBC_2.2.5+0x128>
  40479b:       eb a1                   jmp    40473e <dlerror@plt+0x2cde>
  40479d:       0f 1f 00                nopl   (%rax)
  4047a0:       bf d7 60 40 00          mov    $0x4060d7,%edi
  4047a5:       e8 56 db ff ff          callq  402300 <dlerror@plt+0x8a0>
  4047aa:       48 83 c4 08             add    $0x8,%rsp
  4047ae:       89 d8                   mov    %ebx,%eax
  4047b0:       5b                      pop    %rbx
  4047b1:       5d                      pop    %rbp
  4047b2:       c3                      retq
  4047b3:       bf c0 62 40 00          mov    $0x4062c0,%edi
  4047b8:       e8 43 db ff ff          callq  402300 <dlerror@plt+0x8a0>
  4047bd:       48 89 df                mov    %rbx,%rdi
  4047c0:       ff 15 b2 31 20 00       callq  *0x2031b2(%rip)        # 607978 <stderr@@GLIBC_2.2.5+0x128>
  4047c6:       b8 ff ff ff ff          mov    $0xffffffff,%eax
  4047cb:       eb 95                   jmp    404762 <dlerror@plt+0x2d02>
  4047cd:       0f 1f 00                nopl   (%rax)
  4047d0:       55                      push   %rbp
  4047d1:       53                      push   %rbx
  4047d2:       48 89 fd                mov    %rdi,%rbp
  4047d5:       48 83 ec 08             sub    $0x8,%rsp
  4047d9:       48 8b 5f 10             mov    0x10(%rdi),%rbx
  4047dd:       48 3b 5f 18             cmp    0x18(%rdi),%rbx
  4047e1:       72 19                   jb     4047fc <dlerror@plt+0x2d9c>
  4047e3:       eb 2b                   jmp    404810 <dlerror@plt+0x2db0>
  4047e5:       0f 1f 00                nopl   (%rax)
  4047e8:       48 89 de                mov    %rbx,%rsi
  4047eb:       48 89 ef                mov    %rbp,%rdi
  4047ee:       e8 ad d4 ff ff          callq  401ca0 <dlerror@plt+0x240>
  4047f3:       48 39 45 18             cmp    %rax,0x18(%rbp)
  4047f7:       48 89 c3                mov    %rax,%rbx
  4047fa:       76 14                   jbe    404810 <dlerror@plt+0x2db0>
  4047fc:       80 7b 11 7a             cmpb   $0x7a,0x11(%rbx)
  404800:       75 e6                   jne    4047e8 <dlerror@plt+0x2d88>
  404802:       48 89 de                mov    %rbx,%rsi
  404805:       48 89 ef                mov    %rbp,%rdi
  404808:       e8 03 ff ff ff          callq  404710 <dlerror@plt+0x2cb0>
  40480d:       eb d9                   jmp    4047e8 <dlerror@plt+0x2d88>
  40480f:       90                      nop
  404810:       48 83 c4 08             add    $0x8,%rsp
  404814:       31 c0                   xor    %eax,%eax
  404816:       5b                      pop    %rbx
  404817:       5d                      pop    %rbp
  404818:       c3                      retq
  404819:       0f 1f 80 00 00 00 00    nopl   0x0(%rax)
  404820:       83 bf 7c 40 00 00 01    cmpl   $0x1,0x407c(%rdi)
  404827:       74 07                   je     404830 <dlerror@plt+0x2dd0>
  404829:       f3 c3                   repz retq
  40482b:       0f 1f 44 00 00          nopl   0x0(%rax,%rax,1)
  404830:       48 8b 05 39 31 20 00    mov    0x203139(%rip),%rax        # 607970 <stderr@@GLIBC_2.2.5+0x120>
  404837:       ff e0                   jmpq   *%rax
  404839:       0f 1f 80 00 00 00 00    nopl   0x0(%rax)
  404840:       89 fe                   mov    %edi,%esi
  404842:       8b 3d 00 33 21 00       mov    0x213300(%rip),%edi        # 617b48 <stderr@@GLIBC_2.2.5+0x102f8>
  404848:       e9 23 d0 ff ff          jmpq   401870 <kill@plt>
  40484d:       0f 1f 00                nopl   (%rax)
  404850:       41 57                   push   %r15
  404852:       41 56                   push   %r14
  404854:       49 89 f7                mov    %rsi,%r15
  404857:       41 55                   push   %r13
  404859:       41 54                   push   %r12
  40485b:       49 89 fe                mov    %rdi,%r14
  40485e:       55                      push   %rbp
  40485f:       53                      push   %rbx
  404860:       49 89 d5                mov    %rdx,%r13
  404863:       48 83 ec 18             sub    $0x18,%rsp
  404867:       48 85 ff                test   %rdi,%rdi
  40486a:       0f 84 b8 00 00 00       je     404928 <dlerror@plt+0x2ec8>
  404870:       e8 bb ce ff ff          callq  401730 <strlen@plt>
  404875:       4d 85 ff                test   %r15,%r15
  404878:       89 c5                   mov    %eax,%ebp
  40487a:       0f 84 b8 00 00 00       je     404938 <dlerror@plt+0x2ed8>
  404880:       4c 89 ff                mov    %r15,%rdi
  404883:       e8 a8 ce ff ff          callq  401730 <strlen@plt>
  404888:       4d 85 ed                test   %r13,%r13
  40488b:       89 44 24 0c             mov    %eax,0xc(%rsp)
  40488f:       0f 84 bb 00 00 00       je     404950 <dlerror@plt+0x2ef0>
  404895:       4c 89 ef                mov    %r13,%rdi
  404898:       e8 93 ce ff ff          callq  401730 <strlen@plt>
  40489d:       41 89 c4                mov    %eax,%r12d
  4048a0:       8b 44 24 0c             mov    0xc(%rsp),%eax
  4048a4:       01 e8                   add    %ebp,%eax
  4048a6:       41 8d 7c 04 01          lea    0x1(%r12,%rax,1),%edi
  4048ab:       48 63 ff                movslq %edi,%rdi
  4048ae:       e8 2d d0 ff ff          callq  4018e0 <malloc@plt>
  4048b3:       48 85 c0                test   %rax,%rax
  4048b6:       48 89 c3                mov    %rax,%rbx
  4048b9:       0f 84 a1 00 00 00       je     404960 <dlerror@plt+0x2f00>
  4048bf:       85 ed                   test   %ebp,%ebp
  4048c1:       c6 00 00                movb   $0x0,(%rax)
  4048c4:       75 1a                   jne    4048e0 <dlerror@plt+0x2e80>
  4048c6:       45 85 e4                test   %r12d,%r12d
  4048c9:       48 89 d8                mov    %rbx,%rax
  4048cc:       75 38                   jne    404906 <dlerror@plt+0x2ea6>
  4048ce:       48 83 c4 18             add    $0x18,%rsp
  4048d2:       5b                      pop    %rbx
  4048d3:       5d                      pop    %rbp
  4048d4:       41 5c                   pop    %r12
  4048d6:       41 5d                   pop    %r13
  4048d8:       41 5e                   pop    %r14
  4048da:       41 5f                   pop    %r15
  4048dc:       c3                      retq
  4048dd:       0f 1f 00                nopl   (%rax)
  4048e0:       48 89 c7                mov    %rax,%rdi
  4048e3:       4c 89 f6                mov    %r14,%rsi
  4048e6:       e8 25 ce ff ff          callq  401710 <stpcpy@plt>
  4048eb:       48 89 c7                mov    %rax,%rdi
  4048ee:       8b 44 24 0c             mov    0xc(%rsp),%eax
  4048f2:       85 c0                   test   %eax,%eax
  4048f4:       74 d0                   je     4048c6 <dlerror@plt+0x2e66>
  4048f6:       45 85 e4                test   %r12d,%r12d
  4048f9:       48 89 d8                mov    %rbx,%rax
  4048fc:       74 d0                   je     4048ce <dlerror@plt+0x2e6e>
  4048fe:       4c 89 fe                mov    %r15,%rsi
  404901:       e8 5a cd ff ff          callq  401660 <strcpy@plt>
  404906:       4c 89 ee                mov    %r13,%rsi
  404909:       48 89 df                mov    %rbx,%rdi
  40490c:       e8 cf d0 ff ff          callq  4019e0 <strcat@plt>
  404911:       48 83 c4 18             add    $0x18,%rsp
  404915:       48 89 d8                mov    %rbx,%rax
  404918:       5b                      pop    %rbx
  404919:       5d                      pop    %rbp
  40491a:       41 5c                   pop    %r12
  40491c:       41 5d                   pop    %r13
  40491e:       41 5e                   pop    %r14
  404920:       41 5f                   pop    %r15
  404922:       c3                      retq
  404923:       0f 1f 44 00 00          nopl   0x0(%rax,%rax,1)
  404928:       31 ed                   xor    %ebp,%ebp
  40492a:       4d 85 ff                test   %r15,%r15
  40492d:       0f 85 4d ff ff ff       jne    404880 <dlerror@plt+0x2e20>
  404933:       0f 1f 44 00 00          nopl   0x0(%rax,%rax,1)
  404938:       4d 85 ed                test   %r13,%r13
  40493b:       c7 44 24 0c 00 00 00    movl   $0x0,0xc(%rsp)
  404942:       00
  404943:       0f 85 4c ff ff ff       jne    404895 <dlerror@plt+0x2e35>
  404949:       0f 1f 80 00 00 00 00    nopl   0x0(%rax)
  404950:       45 31 e4                xor    %r12d,%r12d
  404953:       e9 48 ff ff ff          jmpq   4048a0 <dlerror@plt+0x2e40>
  404958:       0f 1f 84 00 00 00 00    nopl   0x0(%rax,%rax,1)
  40495f:       00
  404960:       31 c0                   xor    %eax,%eax
  404962:       e9 67 ff ff ff          jmpq   4048ce <dlerror@plt+0x2e6e>
  404967:       66 0f 1f 84 00 00 00    nopw   0x0(%rax,%rax,1)
  40496e:       00 00
  404970:       48 83 ec 08             sub    $0x8,%rsp
  404974:       e8 67 cc ff ff          callq  4015e0 <getenv@plt>
  404979:       48 85 c0                test   %rax,%rax
  40497c:       74 12                   je     404990 <dlerror@plt+0x2f30>
  40497e:       80 38 00                cmpb   $0x0,(%rax)
  404981:       74 0d                   je     404990 <dlerror@plt+0x2f30>
  404983:       48 89 c7                mov    %rax,%rdi
  404986:       48 83 c4 08             add    $0x8,%rsp
  40498a:       e9 21 ce ff ff          jmpq   4017b0 <__strdup@plt>
  40498f:       90                      nop
  404990:       31 c0                   xor    %eax,%eax
  404992:       48 83 c4 08             add    $0x8,%rsp
  404996:       c3                      retq
  404997:       66 0f 1f 84 00 00 00    nopw   0x0(%rax,%rax,1)
  40499e:       00 00
  4049a0:       55                      push   %rbp
  4049a1:       53                      push   %rbx
  4049a2:       48 89 fd                mov    %rdi,%rbp
  4049a5:       bf e8 62 40 00          mov    $0x4062e8,%edi
  4049aa:       48 83 ec 08             sub    $0x8,%rsp
  4049ae:       e8 bd ff ff ff          callq  404970 <dlerror@plt+0x2f10>
  4049b3:       48 85 c0                test   %rax,%rax
  4049b6:       48 89 c3                mov    %rax,%rbx
  4049b9:       74 12                   je     4049cd <dlerror@plt+0x2f6d>
  4049bb:       ba 01 00 00 00          mov    $0x1,%edx
  4049c0:       48 89 c6                mov    %rax,%rsi
  4049c3:       bf f8 62 40 00          mov    $0x4062f8,%edi
  4049c8:       e8 03 cd ff ff          callq  4016d0 <setenv@plt>
  4049cd:       48 89 da                mov    %rbx,%rdx
  4049d0:       48 89 ef                mov    %rbp,%rdi
  4049d3:       be 79 54 40 00          mov    $0x405479,%esi
  4049d8:       e8 73 fe ff ff          callq  404850 <dlerror@plt+0x2df0>
  4049dd:       ba 01 00 00 00          mov    $0x1,%edx
  4049e2:       48 89 c3                mov    %rax,%rbx
  4049e5:       48 89 c6                mov    %rax,%rsi
  4049e8:       bf e8 62 40 00          mov    $0x4062e8,%edi
  4049ed:       e8 de cc ff ff          callq  4016d0 <setenv@plt>
  4049f2:       48 89 df                mov    %rbx,%rdi
  4049f5:       89 c5                   mov    %eax,%ebp
  4049f7:       e8 14 cc ff ff          callq  401610 <free@plt>
  4049fc:       48 83 c4 08             add    $0x8,%rsp
  404a00:       89 e8                   mov    %ebp,%eax
  404a02:       5b                      pop    %rbx
  404a03:       5d                      pop    %rbp
  404a04:       c3                      retq
  404a05:       66 66 2e 0f 1f 84 00    data16 nopw %cs:0x0(%rax,%rax,1)
  404a0c:       00 00 00 00
  404a10:       ba 01 00 00 00          mov    $0x1,%edx
  404a15:       e9 b6 cc ff ff          jmpq   4016d0 <setenv@plt>
  404a1a:       66 0f 1f 44 00 00       nopw   0x0(%rax,%rax,1)
  404a20:       e9 9b cf ff ff          jmpq   4019c0 <unsetenv@plt>
  404a25:       66 66 2e 0f 1f 84 00    data16 nopw %cs:0x0(%rax,%rax,1)
  404a2c:       00 00 00 00
  404a30:       53                      push   %rbx
  404a31:       48 89 fb                mov    %rdi,%rbx
  404a34:       e8 f7 cc ff ff          callq  401730 <strlen@plt>
  404a39:       80 7c 03 ff 2f          cmpb   $0x2f,-0x1(%rbx,%rax,1)
  404a3e:       74 11                   je     404a51 <dlerror@plt+0x2ff1>
  404a40:       b9 2f 00 00 00          mov    $0x2f,%ecx
  404a45:       48 89 df                mov    %rbx,%rdi
  404a48:       66 89 0c 03             mov    %cx,(%rbx,%rax,1)
  404a4c:       e8 df cc ff ff          callq  401730 <strlen@plt>
  404a51:       48 01 d8                add    %rbx,%rax
  404a54:       48 ba 5f 4d 45 49 58    movabs $0x5858585849454d5f,%rdx
  404a5b:       58 58 58
  404a5e:       48 89 df                mov    %rbx,%rdi
  404a61:       48 89 10                mov    %rdx,(%rax)
  404a64:       ba 58 58 00 00          mov    $0x5858,%edx
  404a69:       c6 40 0a 00             movb   $0x0,0xa(%rax)
  404a6d:       66 89 50 08             mov    %dx,0x8(%rax)
  404a71:       e8 da ce ff ff          callq  401950 <mkdtemp@plt>
  404a76:       48 85 c0                test   %rax,%rax
  404a79:       0f 95 c0                setne  %al
  404a7c:       0f b6 c0                movzbl %al,%eax
  404a7f:       5b                      pop    %rbx
  404a80:       c3                      retq
  404a81:       66 66 66 66 66 66 2e    data16 data16 data16 data16 data16 nopw %cs:0x0(%rax,%rax,1)
  404a88:       0f 1f 84 00 00 00 00
  404a8f:       00
  404a90:       31 c0                   xor    %eax,%eax
  404a92:       83 bf 78 40 00 00 01    cmpl   $0x1,0x4078(%rdi)
  404a99:       74 53                   je     404aee <dlerror@plt+0x308e>
  404a9b:       41 54                   push   %r12
  404a9d:       55                      push   %rbp
  404a9e:       be 14 63 40 00          mov    $0x406314,%esi
  404aa3:       53                      push   %rbx
  404aa4:       49 89 fc                mov    %rdi,%r12
  404aa7:       49 8d 9c 24 78 20 00    lea    0x2078(%r12),%rbx
  404aae:       00
  404aaf:       e8 ac d7 ff ff          callq  402260 <dlerror@plt+0x800>
  404ab4:       48 85 c0                test   %rax,%rax
  404ab7:       74 37                   je     404af0 <dlerror@plt+0x3090>
  404ab9:       ba 00 10 00 00          mov    $0x1000,%edx
  404abe:       48 89 c6                mov    %rax,%rsi
  404ac1:       48 89 df                mov    %rbx,%rdi
  404ac4:       e8 77 ce ff ff          callq  401940 <__strcpy_chk@plt>
  404ac9:       48 89 df                mov    %rbx,%rdi
  404acc:       e8 5f ff ff ff          callq  404a30 <dlerror@plt+0x2fd0>
  404ad1:       85 c0                   test   %eax,%eax
  404ad3:       0f 85 97 00 00 00       jne    404b70 <dlerror@plt+0x3110>
  404ad9:       31 c0                   xor    %eax,%eax
  404adb:       bf 58 63 40 00          mov    $0x406358,%edi
  404ae0:       e8 1b d8 ff ff          callq  402300 <dlerror@plt+0x8a0>
  404ae5:       b8 ff ff ff ff          mov    $0xffffffff,%eax
  404aea:       5b                      pop    %rbx
  404aeb:       5d                      pop    %rbp
  404aec:       41 5c                   pop    %r12
  404aee:       f3 c3                   repz retq
  404af0:       bd 00 64 40 00          mov    $0x406400,%ebp
  404af5:       bf 0d 63 40 00          mov    $0x40630d,%edi
  404afa:       66 0f 1f 44 00 00       nopw   0x0(%rax,%rax,1)
  404b00:       e8 6b fe ff ff          callq  404970 <dlerror@plt+0x2f10>
  404b05:       48 85 c0                test   %rax,%rax
  404b08:       74 1c                   je     404b26 <dlerror@plt+0x30c6>
  404b0a:       ba 00 10 00 00          mov    $0x1000,%edx
  404b0f:       48 89 c6                mov    %rax,%rsi
  404b12:       48 89 df                mov    %rbx,%rdi
  404b15:       e8 26 ce ff ff          callq  401940 <__strcpy_chk@plt>
  404b1a:       48 89 df                mov    %rbx,%rdi
  404b1d:       e8 0e ff ff ff          callq  404a30 <dlerror@plt+0x2fd0>
  404b22:       85 c0                   test   %eax,%eax
  404b24:       75 4a                   jne    404b70 <dlerror@plt+0x3110>
  404b26:       48 83 c5 08             add    $0x8,%rbp
  404b2a:       48 8b 7d 00             mov    0x0(%rbp),%rdi
  404b2e:       48 85 ff                test   %rdi,%rdi
  404b31:       75 cd                   jne    404b00 <dlerror@plt+0x30a0>
  404b33:       bd e0 63 40 00          mov    $0x4063e0,%ebp
  404b38:       be 3d 63 40 00          mov    $0x40633d,%esi
  404b3d:       eb 0e                   jmp    404b4d <dlerror@plt+0x30ed>
  404b3f:       90                      nop
  404b40:       48 83 c5 08             add    $0x8,%rbp
  404b44:       48 8b 75 00             mov    0x0(%rbp),%rsi
  404b48:       48 85 f6                test   %rsi,%rsi
  404b4b:       74 8c                   je     404ad9 <dlerror@plt+0x3079>
  404b4d:       ba 00 10 00 00          mov    $0x1000,%edx
  404b52:       48 89 df                mov    %rbx,%rdi
  404b55:       e8 e6 cd ff ff          callq  401940 <__strcpy_chk@plt>
  404b5a:       48 89 df                mov    %rbx,%rdi
  404b5d:       e8 ce fe ff ff          callq  404a30 <dlerror@plt+0x2fd0>
  404b62:       85 c0                   test   %eax,%eax
  404b64:       74 da                   je     404b40 <dlerror@plt+0x30e0>
  404b66:       66 2e 0f 1f 84 00 00    nopw   %cs:0x0(%rax,%rax,1)
  404b6d:       00 00 00
  404b70:       41 c7 84 24 78 40 00    movl   $0x1,0x4078(%r12)
  404b77:       00 01 00 00 00
  404b7c:       31 c0                   xor    %eax,%eax
  404b7e:       e9 67 ff ff ff          jmpq   404aea <dlerror@plt+0x308a>
  404b83:       66 66 66 66 2e 0f 1f    data16 data16 data16 nopw %cs:0x0(%rax,%rax,1)
  404b8a:       84 00 00 00 00 00
  404b90:       41 55                   push   %r13
  404b92:       41 54                   push   %r12
  404b94:       ba 00 10 00 00          mov    $0x1000,%edx
  404b99:       55                      push   %rbp
  404b9a:       53                      push   %rbx
  404b9b:       48 89 fe                mov    %rdi,%rsi
  404b9e:       49 89 fd                mov    %rdi,%r13
  404ba1:       48 81 ec a8 10 00 00    sub    $0x10a8,%rsp
  404ba8:       48 8d ac 24 90 00 00    lea    0x90(%rsp),%rbp
  404baf:       00
  404bb0:       48 89 ef                mov    %rbp,%rdi
  404bb3:       e8 88 ca ff ff          callq  401640 <strncpy@plt>
  404bb8:       48 89 ea                mov    %rbp,%rdx
  404bbb:       8b 0a                   mov    (%rdx),%ecx
  404bbd:       48 83 c2 04             add    $0x4,%rdx
  404bc1:       8d 81 ff fe fe fe       lea    -0x1010101(%rcx),%eax
  404bc7:       f7 d1                   not    %ecx
  404bc9:       21 c8                   and    %ecx,%eax
  404bcb:       25 80 80 80 80          and    $0x80808080,%eax
  404bd0:       74 e9                   je     404bbb <dlerror@plt+0x315b>
  404bd2:       89 c1                   mov    %eax,%ecx
  404bd4:       c1 e9 10                shr    $0x10,%ecx
  404bd7:       a9 80 80 00 00          test   $0x8080,%eax
  404bdc:       0f 44 c1                cmove  %ecx,%eax
  404bdf:       48 8d 4a 02             lea    0x2(%rdx),%rcx
  404be3:       48 0f 44 d1             cmove  %rcx,%rdx
  404be7:       00 c0                   add    %al,%al
  404be9:       48 83 da 03             sbb    $0x3,%rdx
  404bed:       48 29 ea                sub    %rbp,%rdx
  404bf0:       8d 42 ff                lea    -0x1(%rdx),%eax
  404bf3:       41 89 d4                mov    %edx,%r12d
  404bf6:       48 98                   cltq
  404bf8:       80 bc 04 90 00 00 00    cmpb   $0x2f,0x90(%rsp,%rax,1)
  404bff:       2f
  404c00:       74 0e                   je     404c10 <dlerror@plt+0x31b0>
  404c02:       b8 2f 00 00 00          mov    $0x2f,%eax
  404c07:       44 8d 62 01             lea    0x1(%rdx),%r12d
  404c0b:       66 89 44 15 00          mov    %ax,0x0(%rbp,%rdx,1)
  404c10:       4c 89 ef                mov    %r13,%rdi
  404c13:       4d 63 e4                movslq %r12d,%r12
  404c16:       e8 e5 ca ff ff          callq  401700 <opendir@plt>
  404c1b:       48 89 c7                mov    %rax,%rdi
  404c1e:       48 89 c3                mov    %rax,%rbx
  404c21:       e8 9a cc ff ff          callq  4018c0 <readdir@plt>
  404c26:       48 85 c0                test   %rax,%rax
  404c29:       48 89 c2                mov    %rax,%rdx
  404c2c:       75 62                   jne    404c90 <dlerror@plt+0x3230>
  404c2e:       e9 8d 00 00 00          jmpq   404cc0 <dlerror@plt+0x3260>
  404c33:       0f 1f 44 00 00          nopl   0x0(%rax,%rax,1)
  404c38:       48 8d 72 13             lea    0x13(%rdx),%rsi
  404c3c:       48 89 ef                mov    %rbp,%rdi
  404c3f:       ba 01 10 00 00          mov    $0x1001,%edx
  404c44:       42 c6 84 24 90 00 00    movb   $0x0,0x90(%rsp,%r12,1)
  404c4b:       00 00
  404c4d:       e8 7e c9 ff ff          callq  4015d0 <__strcat_chk@plt>
  404c52:       48 89 e2                mov    %rsp,%rdx
  404c55:       48 89 ee                mov    %rbp,%rsi
  404c58:       bf 01 00 00 00          mov    $0x1,%edi
  404c5d:       e8 4e cc ff ff          callq  4018b0 <__xstat@plt>
  404c62:       85 c0                   test   %eax,%eax
  404c64:       75 1a                   jne    404c80 <dlerror@plt+0x3220>
  404c66:       8b 44 24 18             mov    0x18(%rsp),%eax
  404c6a:       48 89 ef                mov    %rbp,%rdi
  404c6d:       25 00 f0 00 00          and    $0xf000,%eax
  404c72:       3d 00 40 00 00          cmp    $0x4000,%eax
  404c77:       74 67                   je     404ce0 <dlerror@plt+0x3280>
  404c79:       e8 b2 c9 ff ff          callq  401630 <unlink@plt>
  404c7e:       66 90                   xchg   %ax,%ax
  404c80:       48 89 df                mov    %rbx,%rdi
  404c83:       e8 38 cc ff ff          callq  4018c0 <readdir@plt>
  404c88:       48 85 c0                test   %rax,%rax
  404c8b:       48 89 c2                mov    %rax,%rdx
  404c8e:       74 30                   je     404cc0 <dlerror@plt+0x3260>
  404c90:       80 7a 13 2e             cmpb   $0x2e,0x13(%rdx)
  404c94:       75 a2                   jne    404c38 <dlerror@plt+0x31d8>
  404c96:       0f b6 42 14             movzbl 0x14(%rdx),%eax
  404c9a:       84 c0                   test   %al,%al
  404c9c:       74 e2                   je     404c80 <dlerror@plt+0x3220>
  404c9e:       3c 2e                   cmp    $0x2e,%al
  404ca0:       75 96                   jne    404c38 <dlerror@plt+0x31d8>
  404ca2:       80 7a 15 00             cmpb   $0x0,0x15(%rdx)
  404ca6:       75 90                   jne    404c38 <dlerror@plt+0x31d8>
  404ca8:       48 89 df                mov    %rbx,%rdi
  404cab:       e8 10 cc ff ff          callq  4018c0 <readdir@plt>
  404cb0:       48 85 c0                test   %rax,%rax
  404cb3:       48 89 c2                mov    %rax,%rdx
  404cb6:       75 d8                   jne    404c90 <dlerror@plt+0x3230>
  404cb8:       0f 1f 84 00 00 00 00    nopl   0x0(%rax,%rax,1)
  404cbf:       00
  404cc0:       48 89 df                mov    %rbx,%rdi
  404cc3:       e8 d8 ca ff ff          callq  4017a0 <closedir@plt>
  404cc8:       4c 89 ef                mov    %r13,%rdi
  404ccb:       e8 50 ca ff ff          callq  401720 <rmdir@plt>
  404cd0:       48 81 c4 a8 10 00 00    add    $0x10a8,%rsp
  404cd7:       5b                      pop    %rbx
  404cd8:       5d                      pop    %rbp
  404cd9:       41 5c                   pop    %r12
  404cdb:       41 5d                   pop    %r13
  404cdd:       c3                      retq
  404cde:       66 90                   xchg   %ax,%ax
  404ce0:       e8 ab fe ff ff          callq  404b90 <dlerror@plt+0x3130>
  404ce5:       eb 99                   jmp    404c80 <dlerror@plt+0x3220>
  404ce7:       66 0f 1f 84 00 00 00    nopw   0x0(%rax,%rax,1)
  404cee:       00 00
  404cf0:       80 bf 78 20 00 00 00    cmpb   $0x0,0x2078(%rdi)
  404cf7:       75 07                   jne    404d00 <dlerror@plt+0x32a0>
  404cf9:       f3 c3                   repz retq
  404cfb:       0f 1f 44 00 00          nopl   0x0(%rax,%rax,1)
  404d00:       48 81 c7 78 20 00 00    add    $0x2078,%rdi
  404d07:       e9 84 fe ff ff          jmpq   404b90 <dlerror@plt+0x3130>
  404d0c:       0f 1f 40 00             nopl   0x0(%rax)
  404d10:       41 54                   push   %r12
  404d12:       55                      push   %rbp
  404d13:       ba 00 10 00 00          mov    $0x1000,%edx
  404d18:       53                      push   %rbx
  404d19:       48 89 f3                mov    %rsi,%rbx
  404d1c:       48 89 fe                mov    %rdi,%rsi
  404d1f:       48 81 ec 90 20 00 00    sub    $0x2090,%rsp
  404d26:       4c 8d a4 24 90 00 00    lea    0x90(%rsp),%r12
  404d2d:       00
  404d2e:       4c 89 e7                mov    %r12,%rdi
  404d31:       e8 0a c9 ff ff          callq  401640 <strncpy@plt>
  404d36:       48 8d bc 24 90 10 00    lea    0x1090(%rsp),%rdi
  404d3d:       00
  404d3e:       ba 00 10 00 00          mov    $0x1000,%edx
  404d43:       48 89 de                mov    %rbx,%rsi
  404d46:       e8 f5 c8 ff ff          callq  401640 <strncpy@plt>
  404d4b:       80 bc 24 8f 10 00 00    cmpb   $0x0,0x108f(%rsp)
  404d52:       00
  404d53:       0f 85 17 01 00 00       jne    404e70 <dlerror@plt+0x3410>
  404d59:       80 bc 24 8f 20 00 00    cmpb   $0x0,0x208f(%rsp)
  404d60:       00
  404d61:       0f 85 09 01 00 00       jne    404e70 <dlerror@plt+0x3410>
  404d67:       4c 89 e3                mov    %r12,%rbx
  404d6a:       8b 13                   mov    (%rbx),%edx
  404d6c:       48 83 c3 04             add    $0x4,%rbx
  404d70:       8d 82 ff fe fe fe       lea    -0x1010101(%rdx),%eax
  404d76:       f7 d2                   not    %edx
  404d78:       21 d0                   and    %edx,%eax
  404d7a:       25 80 80 80 80          and    $0x80808080,%eax
  404d7f:       74 e9                   je     404d6a <dlerror@plt+0x330a>
  404d81:       89 c2                   mov    %eax,%edx
  404d83:       48 8d bc 24 90 10 00    lea    0x1090(%rsp),%rdi
  404d8a:       00
  404d8b:       be 7b 54 40 00          mov    $0x40547b,%esi
  404d90:       c1 ea 10                shr    $0x10,%edx
  404d93:       a9 80 80 00 00          test   $0x8080,%eax
  404d98:       0f 44 c2                cmove  %edx,%eax
  404d9b:       48 8d 53 02             lea    0x2(%rbx),%rdx
  404d9f:       48 0f 44 da             cmove  %rdx,%rbx
  404da3:       00 c0                   add    %al,%al
  404da5:       48 83 db 03             sbb    $0x3,%rbx
  404da9:       4c 29 e3                sub    %r12,%rbx
  404dac:       e8 ff cb ff ff          callq  4019b0 <strtok@plt>
  404db1:       48 85 c0                test   %rax,%rax
  404db4:       48 89 c5                mov    %rax,%rbp
  404db7:       0f 84 c3 00 00 00       je     404e80 <dlerror@plt+0x3420>
  404dbd:       0f 1f 00                nopl   (%rax)
  404dc0:       48 89 ef                mov    %rbp,%rdi
  404dc3:       e8 68 c9 ff ff          callq  401730 <strlen@plt>
  404dc8:       48 8d 5c 03 01          lea    0x1(%rbx,%rax,1),%rbx
  404dcd:       48 81 fb fe 0f 00 00    cmp    $0xffe,%rbx
  404dd4:       0f 87 96 00 00 00       ja     404e70 <dlerror@plt+0x3410>
  404dda:       4c 89 e1                mov    %r12,%rcx
  404ddd:       8b 01                   mov    (%rcx),%eax
  404ddf:       48 83 c1 04             add    $0x4,%rcx
  404de3:       8d 90 ff fe fe fe       lea    -0x1010101(%rax),%edx
  404de9:       f7 d0                   not    %eax
  404deb:       21 c2                   and    %eax,%edx
  404ded:       81 e2 80 80 80 80       and    $0x80808080,%edx
  404df3:       74 e8                   je     404ddd <dlerror@plt+0x337d>
  404df5:       89 d0                   mov    %edx,%eax
  404df7:       48 89 ee                mov    %rbp,%rsi
  404dfa:       c1 e8 10                shr    $0x10,%eax
  404dfd:       f7 c2 80 80 00 00       test   $0x8080,%edx
  404e03:       0f 44 d0                cmove  %eax,%edx
  404e06:       48 8d 41 02             lea    0x2(%rcx),%rax
  404e0a:       48 0f 44 c8             cmove  %rax,%rcx
  404e0e:       00 d2                   add    %dl,%dl
  404e10:       b8 2f 00 00 00          mov    $0x2f,%eax
  404e15:       48 83 d9 03             sbb    $0x3,%rcx
  404e19:       ba 00 10 00 00          mov    $0x1000,%edx
  404e1e:       48 8d 79 01             lea    0x1(%rcx),%rdi
  404e22:       66 89 01                mov    %ax,(%rcx)
  404e25:       e8 16 cb ff ff          callq  401940 <__strcpy_chk@plt>
  404e2a:       31 ff                   xor    %edi,%edi
  404e2c:       be 7b 54 40 00          mov    $0x40547b,%esi
  404e31:       e8 7a cb ff ff          callq  4019b0 <strtok@plt>
  404e36:       48 85 c0                test   %rax,%rax
  404e39:       48 89 c5                mov    %rax,%rbp
  404e3c:       74 42                   je     404e80 <dlerror@plt+0x3420>
  404e3e:       48 89 e2                mov    %rsp,%rdx
  404e41:       4c 89 e6                mov    %r12,%rsi
  404e44:       bf 01 00 00 00          mov    $0x1,%edi
  404e49:       e8 62 ca ff ff          callq  4018b0 <__xstat@plt>
  404e4e:       85 c0                   test   %eax,%eax
  404e50:       0f 89 6a ff ff ff       jns    404dc0 <dlerror@plt+0x3360>
  404e56:       be c0 01 00 00          mov    $0x1c0,%esi
  404e5b:       4c 89 e7                mov    %r12,%rdi
  404e5e:       e8 1d c8 ff ff          callq  401680 <mkdir@plt>
  404e63:       e9 58 ff ff ff          jmpq   404dc0 <dlerror@plt+0x3360>
  404e68:       0f 1f 84 00 00 00 00    nopl   0x0(%rax,%rax,1)
  404e6f:       00
  404e70:       48 81 c4 90 20 00 00    add    $0x2090,%rsp
  404e77:       31 c0                   xor    %eax,%eax
  404e79:       5b                      pop    %rbx
  404e7a:       5d                      pop    %rbp
  404e7b:       41 5c                   pop    %r12
  404e7d:       c3                      retq
  404e7e:       66 90                   xchg   %ax,%ax
  404e80:       48 89 e2                mov    %rsp,%rdx
  404e83:       4c 89 e6                mov    %r12,%rsi
  404e86:       bf 01 00 00 00          mov    $0x1,%edi
  404e8b:       e8 20 ca ff ff          callq  4018b0 <__xstat@plt>
  404e90:       85 c0                   test   %eax,%eax
  404e92:       74 19                   je     404ead <dlerror@plt+0x344d>
  404e94:       be 27 63 40 00          mov    $0x406327,%esi
  404e99:       4c 89 e7                mov    %r12,%rdi
  404e9c:       e8 ef ca ff ff          callq  401990 <fopen@plt>
  404ea1:       48 81 c4 90 20 00 00    add    $0x2090,%rsp
  404ea8:       5b                      pop    %rbx
  404ea9:       5d                      pop    %rbp
  404eaa:       41 5c                   pop    %r12
  404eac:       c3                      retq
  404ead:       4c 89 e6                mov    %r12,%rsi
  404eb0:       bf 90 63 40 00          mov    $0x406390,%edi
  404eb5:       e8 46 d4 ff ff          callq  402300 <dlerror@plt+0x8a0>
  404eba:       be 27 63 40 00          mov    $0x406327,%esi
  404ebf:       4c 89 e7                mov    %r12,%rdi
  404ec2:       e8 c9 ca ff ff          callq  401990 <fopen@plt>
  404ec7:       eb d8                   jmp    404ea1 <dlerror@plt+0x3441>
  404ec9:       0f 1f 80 00 00 00 00    nopl   0x0(%rax)
  404ed0:       41 54                   push   %r12
  404ed2:       55                      push   %rbp
  404ed3:       49 89 d4                mov    %rdx,%r12
  404ed6:       53                      push   %rbx
  404ed7:       48 89 f5                mov    %rsi,%rbp
  404eda:       be cd 52 40 00          mov    $0x4052cd,%esi
  404edf:       48 81 ec 00 10 00 00    sub    $0x1000,%rsp
  404ee6:       e8 a5 ca ff ff          callq  401990 <fopen@plt>
  404eeb:       4c 89 e6                mov    %r12,%rsi
  404eee:       48 89 ef                mov    %rbp,%rdi
  404ef1:       48 89 c3                mov    %rax,%rbx
  404ef4:       e8 17 fe ff ff          callq  404d10 <dlerror@plt+0x32b0>
  404ef9:       48 85 c0                test   %rax,%rax
  404efc:       49 89 c4                mov    %rax,%r12
  404eff:       0f 84 c3 00 00 00       je     404fc8 <dlerror@plt+0x3568>
  404f05:       48 85 db                test   %rbx,%rbx
  404f08:       0f 84 ba 00 00 00       je     404fc8 <dlerror@plt+0x3568>
  404f0e:       66 90                   xchg   %ax,%ax
  404f10:       48 89 df                mov    %rbx,%rdi
  404f13:       e8 08 c9 ff ff          callq  401820 <feof@plt>
  404f18:       85 c0                   test   %eax,%eax
  404f1a:       0f 85 d0 00 00 00       jne    404ff0 <dlerror@plt+0x3590>
  404f20:       48 89 d9                mov    %rbx,%rcx
  404f23:       ba 01 00 00 00          mov    $0x1,%edx
  404f28:       be 00 10 00 00          mov    $0x1000,%esi
  404f2d:       48 89 e7                mov    %rsp,%rdi
  404f30:       e8 6b c7 ff ff          callq  4016a0 <fread@plt>
  404f35:       48 83 f8 ff             cmp    $0xffffffffffffffff,%rax
  404f39:       48 89 c5                mov    %rax,%rbp
  404f3c:       74 6a                   je     404fa8 <dlerror@plt+0x3548>
  404f3e:       4c 89 e1                mov    %r12,%rcx
  404f41:       ba 01 00 00 00          mov    $0x1,%edx
  404f46:       be 00 10 00 00          mov    $0x1000,%esi
  404f4b:       48 89 e7                mov    %rsp,%rdi
  404f4e:       e8 ad ca ff ff          callq  401a00 <fwrite@plt>
  404f53:       85 c0                   test   %eax,%eax
  404f55:       7e 0c                   jle    404f63 <dlerror@plt+0x3503>
  404f57:       4c 89 e7                mov    %r12,%rdi
  404f5a:       e8 31 c7 ff ff          callq  401690 <ferror@plt>
  404f5f:       85 c0                   test   %eax,%eax
  404f61:       74 ad                   je     404f10 <dlerror@plt+0x34b0>
  404f63:       4c 89 e7                mov    %r12,%rdi
  404f66:       bd ff ff ff ff          mov    $0xffffffff,%ebp
  404f6b:       e8 d0 c8 ff ff          callq  401840 <clearerr@plt>
  404f70:       4c 89 e7                mov    %r12,%rdi
  404f73:       e8 18 c9 ff ff          callq  401890 <fileno@plt>
  404f78:       be c0 01 00 00          mov    $0x1c0,%esi
  404f7d:       89 c7                   mov    %eax,%edi
  404f7f:       e8 ec c9 ff ff          callq  401970 <fchmod@plt>
  404f84:       48 89 df                mov    %rbx,%rdi
  404f87:       e8 64 c7 ff ff          callq  4016f0 <fclose@plt>
  404f8c:       4c 89 e7                mov    %r12,%rdi
  404f8f:       e8 5c c7 ff ff          callq  4016f0 <fclose@plt>
  404f94:       48 81 c4 00 10 00 00    add    $0x1000,%rsp
  404f9b:       89 e8                   mov    %ebp,%eax
  404f9d:       5b                      pop    %rbx
  404f9e:       5d                      pop    %rbp
  404f9f:       41 5c                   pop    %r12
  404fa1:       c3                      retq
  404fa2:       66 0f 1f 44 00 00       nopw   0x0(%rax,%rax,1)
  404fa8:       48 89 df                mov    %rbx,%rdi
  404fab:       e8 e0 c6 ff ff          callq  401690 <ferror@plt>
  404fb0:       85 c0                   test   %eax,%eax
  404fb2:       0f 84 58 ff ff ff       je     404f10 <dlerror@plt+0x34b0>
  404fb8:       48 89 df                mov    %rbx,%rdi
  404fbb:       e8 80 c8 ff ff          callq  401840 <clearerr@plt>
  404fc0:       eb ae                   jmp    404f70 <dlerror@plt+0x3510>
  404fc2:       66 0f 1f 44 00 00       nopw   0x0(%rax,%rax,1)
  404fc8:       48 85 db                test   %rbx,%rbx
  404fcb:       74 08                   je     404fd5 <dlerror@plt+0x3575>
  404fcd:       48 89 df                mov    %rbx,%rdi
  404fd0:       e8 1b c7 ff ff          callq  4016f0 <fclose@plt>
  404fd5:       4d 85 e4                test   %r12,%r12
  404fd8:       bd ff ff ff ff          mov    $0xffffffff,%ebp
  404fdd:       75 ad                   jne    404f8c <dlerror@plt+0x352c>
  404fdf:       48 81 c4 00 10 00 00    add    $0x1000,%rsp
  404fe6:       89 e8                   mov    %ebp,%eax
  404fe8:       5b                      pop    %rbx
  404fe9:       5d                      pop    %rbp
  404fea:       41 5c                   pop    %r12
  404fec:       c3                      retq
  404fed:       0f 1f 00                nopl   (%rax)
  404ff0:       31 ed                   xor    %ebp,%ebp
  404ff2:       e9 79 ff ff ff          jmpq   404f70 <dlerror@plt+0x3510>
  404ff7:       66 0f 1f 84 00 00 00    nopw   0x0(%rax,%rax,1)
  404ffe:       00 00
  405000:       be 02 01 00 00          mov    $0x102,%esi
  405005:       e9 c6 c8 ff ff          jmpq   4018d0 <dlopen@plt>
  40500a:       66 0f 1f 44 00 00       nopw   0x0(%rax,%rax,1)
  405010:       80 bf 78 20 00 00 00    cmpb   $0x0,0x2078(%rdi)
  405017:       75 0f                   jne    405028 <dlerror@plt+0x35c8>
  405019:       48 81 c7 78 10 00 00    add    $0x1078,%rdi
  405020:       e9 7b f9 ff ff          jmpq   4049a0 <dlerror@plt+0x2f40>
  405025:       0f 1f 00                nopl   (%rax)
  405028:       48 81 c7 78 20 00 00    add    $0x2078,%rdi
  40502f:       e9 6c f9 ff ff          jmpq   4049a0 <dlerror@plt+0x2f40>
  405034:       66 66 66 2e 0f 1f 84    data16 data16 nopw %cs:0x0(%rax,%rax,1)
  40503b:       00 00 00 00 00
  405040:       48 83 ec 28             sub    $0x28,%rsp
  405044:       bf 2a 63 40 00          mov    $0x40632a,%edi
  405049:       e8 22 f9 ff ff          callq  404970 <dlerror@plt+0x2f10>
  40504e:       48 89 c2                mov    %rax,%rdx
  405051:       31 c0                   xor    %eax,%eax
  405053:       48 85 d2                test   %rdx,%rdx
  405056:       74 39                   je     405091 <dlerror@plt+0x3631>
  405058:       e8 83 c6 ff ff          callq  4016e0 <getpid@plt>
  40505d:       ba 01 00 00 00          mov    $0x1,%edx
  405062:       4c 63 c8                movslq %eax,%r9
  405065:       be 17 00 00 00          mov    $0x17,%esi
  40506a:       48 89 e7                mov    %rsp,%rdi
  40506d:       41 b8 35 63 40 00       mov    $0x406335,%r8d
  405073:       b9 17 00 00 00          mov    $0x17,%ecx
  405078:       31 c0                   xor    %eax,%eax
  40507a:       e8 71 c5 ff ff          callq  4015f0 <__snprintf_chk@plt>
  40507f:       ba 01 00 00 00          mov    $0x1,%edx
  405084:       48 89 e6                mov    %rsp,%rsi
  405087:       bf 2a 63 40 00          mov    $0x40632a,%edi
  40508c:       e8 3f c6 ff ff          callq  4016d0 <setenv@plt>
  405091:       48 83 c4 28             add    $0x28,%rsp
  405095:       c3                      retq
  405096:       66 2e 0f 1f 84 00 00    nopw   %cs:0x0(%rax,%rax,1)
  40509d:       00 00 00
  4050a0:       41 56                   push   %r14
  4050a2:       49 89 fe                mov    %rdi,%r14
  4050a5:       41 55                   push   %r13
  4050a7:       8d 7e 01                lea    0x1(%rsi),%edi
  4050aa:       41 54                   push   %r12
  4050ac:       55                      push   %rbp
  4050ad:       53                      push   %rbx
  4050ae:       89 f5                   mov    %esi,%ebp
  4050b0:       be 08 00 00 00          mov    $0x8,%esi
  4050b5:       48 63 ff                movslq %edi,%rdi
  4050b8:       49 89 d5                mov    %rdx,%r13
  4050bb:       48 83 ec 10             sub    $0x10,%rsp
  4050bf:       c7 44 24 0c 00 00 00    movl   $0x0,0xc(%rsp)
  4050c6:       00
  4050c7:       e8 14 c7 ff ff          callq  4017e0 <calloc@plt>
  4050cc:       85 ed                   test   %ebp,%ebp
  4050ce:       49 89 c4                mov    %rax,%r12
  4050d1:       48 89 05 78 2a 21 00    mov    %rax,0x212a78(%rip)        # 617b50 <stderr@@GLIBC_2.2.5+0x10300>
  4050d8:       c7 05 6a 2a 21 00 00    movl   $0x0,0x212a6a(%rip)        # 617b4c <stderr@@GLIBC_2.2.5+0x102fc>
  4050df:       00 00 00
  4050e2:       7e 2c                   jle    405110 <dlerror@plt+0x36b0>
  4050e4:       83 ed 01                sub    $0x1,%ebp
  4050e7:       31 db                   xor    %ebx,%ebx
  4050e9:       48 83 c5 01             add    $0x1,%rbp
  4050ed:       0f 1f 00                nopl   (%rax)
  4050f0:       49 8b 7c dd 00          mov    0x0(%r13,%rbx,8),%rdi
  4050f5:       8d 43 01                lea    0x1(%rbx),%eax
  4050f8:       89 05 4e 2a 21 00       mov    %eax,0x212a4e(%rip)        # 617b4c <stderr@@GLIBC_2.2.5+0x102fc>
  4050fe:       e8 ad c6 ff ff          callq  4017b0 <__strdup@plt>
  405103:       49 89 04 dc             mov    %rax,(%r12,%rbx,8)
  405107:       48 83 c3 01             add    $0x1,%rbx
  40510b:       48 39 eb                cmp    %rbp,%rbx
  40510e:       75 e0                   jne    4050f0 <dlerror@plt+0x3690>
  405110:       e8 3b c9 ff ff          callq  401a50 <fork@plt>
  405115:       85 c0                   test   %eax,%eax
  405117:       75 57                   jne    405170 <dlerror@plt+0x3710>
  405119:       31 c0                   xor    %eax,%eax
  40511b:       e8 20 ff ff ff          callq  405040 <dlerror@plt+0x35e0>
  405120:       48 8b 35 29 2a 21 00    mov    0x212a29(%rip),%rsi        # 617b50 <stderr@@GLIBC_2.2.5+0x10300>
  405127:       4c 89 f7                mov    %r14,%rdi
  40512a:       e8 a1 c8 ff ff          callq  4019d0 <execvp@plt>
  40512f:       48 8d 7c 24 0c          lea    0xc(%rsp),%rdi
  405134:       e8 07 c9 ff ff          callq  401a40 <wait@plt>
  405139:       8b 05 09 2a 21 00       mov    0x212a09(%rip),%eax        # 617b48 <stderr@@GLIBC_2.2.5+0x102f8>
  40513f:       85 c0                   test   %eax,%eax
  405141:       75 7d                   jne    4051c0 <dlerror@plt+0x3760>
  405143:       8b 44 24 0c             mov    0xc(%rsp),%eax
  405147:       89 c7                   mov    %eax,%edi
  405149:       83 e7 7f                and    $0x7f,%edi
  40514c:       74 5a                   je     4051a8 <dlerror@plt+0x3748>
  40514e:       8d 47 01                lea    0x1(%rdi),%eax
  405151:       bb 01 00 00 00          mov    $0x1,%ebx
  405156:       3c 01                   cmp    $0x1,%al
  405158:       7e 05                   jle    40515f <dlerror@plt+0x36ff>
  40515a:       e8 a1 c4 ff ff          callq  401600 <raise@plt>
  40515f:       48 83 c4 10             add    $0x10,%rsp
  405163:       89 d8                   mov    %ebx,%eax
  405165:       5b                      pop    %rbx
  405166:       5d                      pop    %rbp
  405167:       41 5c                   pop    %r12
  405169:       41 5d                   pop    %r13
  40516b:       41 5e                   pop    %r14
  40516d:       c3                      retq
  40516e:       66 90                   xchg   %ax,%ax
  405170:       be 40 48 40 00          mov    $0x404840,%esi
  405175:       bf 02 00 00 00          mov    $0x2,%edi
  40517a:       89 05 c8 29 21 00       mov    %eax,0x2129c8(%rip)        # 617b48 <stderr@@GLIBC_2.2.5+0x102f8>
  405180:       e8 7b c6 ff ff          callq  401800 <signal@plt>
  405185:       be 40 48 40 00          mov    $0x404840,%esi
  40518a:       bf 09 00 00 00          mov    $0x9,%edi
  40518f:       e8 6c c6 ff ff          callq  401800 <signal@plt>
  405194:       be 40 48 40 00          mov    $0x404840,%esi
  405199:       bf 0f 00 00 00          mov    $0xf,%edi
  40519e:       e8 5d c6 ff ff          callq  401800 <signal@plt>
  4051a3:       eb 8a                   jmp    40512f <dlerror@plt+0x36cf>
  4051a5:       0f 1f 00                nopl   (%rax)
  4051a8:       48 83 c4 10             add    $0x10,%rsp
  4051ac:       0f b6 dc                movzbl %ah,%ebx
  4051af:       89 d8                   mov    %ebx,%eax
  4051b1:       5b                      pop    %rbx
  4051b2:       5d                      pop    %rbp
  4051b3:       41 5c                   pop    %r12
  4051b5:       41 5d                   pop    %r13
  4051b7:       41 5e                   pop    %r14
  4051b9:       c3                      retq
  4051ba:       66 0f 1f 44 00 00       nopw   0x0(%rax,%rax,1)
  4051c0:       31 f6                   xor    %esi,%esi
  4051c2:       bf 02 00 00 00          mov    $0x2,%edi
  4051c7:       e8 34 c6 ff ff          callq  401800 <signal@plt>
  4051cc:       31 f6                   xor    %esi,%esi
  4051ce:       bf 09 00 00 00          mov    $0x9,%edi
  4051d3:       e8 28 c6 ff ff          callq  401800 <signal@plt>
  4051d8:       31 f6                   xor    %esi,%esi
  4051da:       bf 0f 00 00 00          mov    $0xf,%edi
  4051df:       e8 1c c6 ff ff          callq  401800 <signal@plt>
  4051e4:       8b 05 62 29 21 00       mov    0x212962(%rip),%eax        # 617b4c <stderr@@GLIBC_2.2.5+0x102fc>
  4051ea:       4c 8b 25 5f 29 21 00    mov    0x21295f(%rip),%r12        # 617b50 <stderr@@GLIBC_2.2.5+0x10300>
  4051f1:       85 c0                   test   %eax,%eax
  4051f3:       7e 2c                   jle    405221 <dlerror@plt+0x37c1>
  4051f5:       83 e8 01                sub    $0x1,%eax
  4051f8:       4c 89 e3                mov    %r12,%rbx
  4051fb:       48 8d 2c c5 08 00 00    lea    0x8(,%rax,8),%rbp
  405202:       00
  405203:       4c 01 e5                add    %r12,%rbp
  405206:       66 2e 0f 1f 84 00 00    nopw   %cs:0x0(%rax,%rax,1)
  40520d:       00 00 00
  405210:       48 8b 3b                mov    (%rbx),%rdi
  405213:       48 83 c3 08             add    $0x8,%rbx
  405217:       e8 f4 c3 ff ff          callq  401610 <free@plt>
  40521c:       48 39 eb                cmp    %rbp,%rbx
  40521f:       75 ef                   jne    405210 <dlerror@plt+0x37b0>
  405221:       4c 89 e7                mov    %r12,%rdi
  405224:       e8 e7 c3 ff ff          callq  401610 <free@plt>
  405229:       e9 15 ff ff ff          jmpq   405143 <dlerror@plt+0x36e3>
  40522e:       66 90                   xchg   %ax,%ax
  405230:       41 57                   push   %r15
  405232:       41 89 ff                mov    %edi,%r15d
  405235:       41 56                   push   %r14
  405237:       49 89 f6                mov    %rsi,%r14
  40523a:       41 55                   push   %r13
  40523c:       49 89 d5                mov    %rdx,%r13
  40523f:       41 54                   push   %r12
  405241:       4c 8d 25 60 21 20 00    lea    0x202160(%rip),%r12        # 6073a8 <dlerror@plt+0x205948>
  405248:       55                      push   %rbp
  405249:       48 8d 2d 60 21 20 00    lea    0x202160(%rip),%rbp        # 6073b0 <dlerror@plt+0x205950>
  405250:       53                      push   %rbx
  405251:       4c 29 e5                sub    %r12,%rbp
  405254:       31 db                   xor    %ebx,%ebx
  405256:       48 c1 fd 03             sar    $0x3,%rbp
  40525a:       48 83 ec 08             sub    $0x8,%rsp
  40525e:       e8 35 c3 ff ff          callq  401598 <__strcat_chk@plt-0x38>
  405263:       48 85 ed                test   %rbp,%rbp
  405266:       74 1e                   je     405286 <dlerror@plt+0x3826>
  405268:       0f 1f 84 00 00 00 00    nopl   0x0(%rax,%rax,1)
  40526f:       00
  405270:       4c 89 ea                mov    %r13,%rdx
  405273:       4c 89 f6                mov    %r14,%rsi
  405276:       44 89 ff                mov    %r15d,%edi
  405279:       41 ff 14 dc             callq  *(%r12,%rbx,8)
  40527d:       48 83 c3 01             add    $0x1,%rbx
  405281:       48 39 eb                cmp    %rbp,%rbx
  405284:       75 ea                   jne    405270 <dlerror@plt+0x3810>
  405286:       48 83 c4 08             add    $0x8,%rsp
  40528a:       5b                      pop    %rbx
  40528b:       5d                      pop    %rbp
  40528c:       41 5c                   pop    %r12
  40528e:       41 5d                   pop    %r13
  405290:       41 5e                   pop    %r14
  405292:       41 5f                   pop    %r15
  405294:       c3                      retq
  405295:       66 66 2e 0f 1f 84 00    data16 nopw %cs:0x0(%rax,%rax,1)
  40529c:       00 00 00 00
  4052a0:       f3 c3                   repz retq

Disassemblamento della sezione .fini:

00000000004052a4 <.fini>:
  4052a4:       48 83 ec 08             sub    $0x8,%rsp
  4052a8:       48 83 c4 08             add    $0x8,%rsp
  4052ac:       c3                      retq
